(dp1
S'output'
p2
S"<type 'exceptions.AttributeError'> 'Rows' object has no attribute 'title'"
p3
sS'layer'
p4
S'C:\\Users\\maxse_000\\Downloads\\Installers_Setups\\web2py_win\\web2py\\applications\\fizcode\\views\\default/courses.html'
p5
sS'code'
p6
S'response.write(\'<!DOCTYPE html>\\r\\n<html lang="\', escape=False)\nresponse.write(T.accepted_language or \'en\')\nresponse.write(\'">\\r\\n  <head>\\r\\n    <meta charset="utf-8">\\r\\n    <title>\', escape=False)\nresponse.write(response.title or request.application)\nresponse.write(\'</title>\\r\\n    <meta name="application-name" content="\', escape=False)\nresponse.write(request.application)\nresponse.write(\'">\\r\\n\\t<link href=\\\'http://fonts.googleapis.com/css?family=Lato:300,400,700,400italic\\\' rel=\\\'stylesheet\\\' type=\\\'text/css\\\'>\\r\\n    <link rel="stylesheet" href="\', escape=False)\nresponse.write(URL(\'static\',\'css/style.css\'))\nresponse.write(\'"/>\\r\\n    <link rel="stylesheet" href="\', escape=False)\nresponse.write(URL(\'static\',\'css/style_small.css\'))\nresponse.write(\'" media="screen and (max-width:500px)"/>\\r\\n    <link rel="stylesheet" href="\', escape=False)\nresponse.write(URL(\'static\',\'css/login.css\'))\nresponse.write(\'"/>\\r\\n\\t<link rel="stylesheet" href="\', escape=False)\nresponse.write(URL(\'static\',\'css/login_small.css\'))\nresponse.write(\'" media="screen and (max-width:500px)"/>\\r\\n\\t<link rel="stylesheet" href="\', escape=False)\nresponse.write(URL(\'static\',\'css/login_large.css\'))\nresponse.write(\'" media="screen and (min-width:500px)"/>\\r\\n\\t  <link rel="stylesheet" href="\', escape=False)\nresponse.write(URL(\'static\',\'css/normalize.css\'))\nresponse.write(\'"/>\\r\\n    <link rel="shortcut icon" href="\', escape=False)\nresponse.write(URL(\'static\',\'images/FizcodeIcon.ico\'))\nresponse.write(\'">\\r\\n    \', escape=False)\nmc0 = \'col-md-12\'\nmc1 = \'col-md-9\'\nmc2 = \'col-md-6\'\nmiddle_column = {0: mc0, 1: mc1, 2: mc2}\nresponse.write(\'\\r\\n  </head>\\r\\n  <body>\\r\\n      <div>\\r\\n        \', escape=False)\nresponse.write(\'\\r\\n        \', escape=False)\nresponse.write(\'\\r\\n<!DOCTYPE html>\\r\\n<html lang="en">\\r\\n\\t<head>\\r\\n\\t\\t<meta charset="UTF-8">\\r\\n\\t\\t \', escape=False)\nresponse.files.append(URL(\'static\',\'style.css\'))\nresponse.write(\'\\r\\n        \', escape=False)\nresponse.files.append(URL(\'static\',\'normalize.css\'))\nresponse.write(\'\\r\\n        \', escape=False)\nresponse.files.append(URL(\'static\',\'style_small.css\'))\nresponse.write(\'\\r\\n        \', escape=False)\nresponse.files.append(URL(\'static\',\'login.css\'))\nresponse.write(\'\\r\\n        \', escape=False)\nresponse.files.append(URL(\'static\',\'login-small.css\'))\nresponse.write(\'\\r\\n        \', escape=False)\nresponse.files.append(URL(\'static\',\'login_large.css\'))\nresponse.write(\'\\r\\n        \', escape=False)\nresponse.write(\'<script type="text/javascript"><!--\\n    // These variables are used by the web2py_ajax_init function in web2py_ajax.js (which is loaded below).\\n    var w2p_ajax_confirm_message = "\', escape=False)\nresponse.write(T(\'Are you sure you want to delete this object?\'))\nresponse.write(\'";\\n    var w2p_ajax_disable_with_message = "\', escape=False)\nresponse.write(T(\'Working...\'))\nresponse.write(\'";\\n    var w2p_ajax_date_format = "\', escape=False)\nresponse.write(T(\'%Y-%m-%d\'))\nresponse.write(\'";\\n    var w2p_ajax_datetime_format = "\', escape=False)\nresponse.write(T(\'%Y-%m-%d %H:%M:%S\'))\nresponse.write(\'";\\n    var ajax_error_500 = \\\'\', escape=False)\nresponse.write(T.M(\'An error occured, please [[reload %s]] the page\') % URL(args=request.args, vars=request.get_vars))\nresponse.write("\'\\n    //--></script>\\n", escape=False)\nresponse.files.insert(0,URL(\'static\',\'js/jquery.js\'))\nresponse.files.insert(1,URL(\'static\',\'css/calendar.css\'))\nresponse.files.insert(2,URL(\'static\',\'js/calendar.js\'))\nresponse.files.insert(3,URL(\'static\',\'js/web2py.js\'))\nresponse.include_meta()\nresponse.include_files()\nresponse.write(\'\\n\', escape=False)\nresponse.write(\'\\r\\n\\t\\t<!--<link href=\\\'http://fonts.googleapis.com/css?family=Lato:300,400,700,400italic\\\' rel=\\\'stylesheet\\\' type=\\\'text/css\\\'>\\r\\n\\t\\t<link rel="stylesheet" href="css/normalize.css">\\r\\n\\t\\t<link rel="stylesheet" href="css/style/style.css">\\r\\n\\t\\t<link rel="stylesheet" href="css/style/style-small.css" media="screen and (max-width:500px)">\\r\\n\\t\\t<link rel="stylesheet" href="css/style/style-large.css" media="screen and (min-width:500px)">-->\\r\\n\\t\\t<link rel="stylesheet" href="\', escape=False)\nresponse.write(URL(\'static\',\'css/courses.css\'))\nresponse.write(\'">\\r\\n\\t\\t<link rel="stylesheet" href="\', escape=False)\nresponse.write(URL(\'static\',\'css/courses-small.css\'))\nresponse.write(\'" media="screen and (max-width:700px)">\\r\\n\\t\\t<link rel="stylesheet" href="\', escape=False)\nresponse.write(URL(\'static\',\'css/courses-medium.css\'))\nresponse.write(\'" media="screen and (min-width:700px) and (max-width:1300px)">\\r\\n\\t\\t<link rel="stylesheet" href="\', escape=False)\nresponse.write(URL(\'static\',\'css/courses-large.css\'))\nresponse.write(\'" media="screen and (min-width:1300px)">\\r\\n\\t\\t<link rel="shortcut icon" href="\', escape=False)\nresponse.write(URL(\'static\',\'images/FizcodeIcon.ico\'))\nresponse.write(\'">\\r\\n\\t\\t<title>Fizcode | Courses</title>\\r\\n\\t</head>\\r\\n\\t<body>\\r\\n\\t\\t<header>\\r\\n\\t\\t\\t<nav class="centered1440px size20">\\r\\n\\t\\t\\t\\t<ul>\\r\\n\\t\\t\\t\\t\\t<a href="index.html">\\r\\n\\t\\t\\t\\t\\t\\t<li class="left">\\r\\n\\t\\t\\t\\t\\t\\t\\t<div class="logo">\\r\\n\\t\\t\\t\\t\\t\\t\\t\\t<svg xmlns="http://www.w3.org/2000/svg" xmlns:xlink="http://www.w3.org/1999/xlink" preserveAspectRatio="xMidYMid" width="1341" height="512" viewBox="0 0 1341 512">\\r\\n\\t\\t\\t\\t\\t\\t\\t\\t  <path d="M1267.356,268.471 C1263.594,276.185 1256.697,283.136 1246.664,289.319 C1236.632,295.505 1222.837,300.890 1205.280,305.476 C1187.724,310.063 1165.151,313.747 1137.561,316.525 C1137.421,318.056 1137.352,319.548 1137.352,321.008 C1137.352,322.467 1137.352,323.962 1137.352,325.490 C1137.352,344.116 1141.428,358.325 1149.579,368.124 C1157.731,377.922 1170.026,382.822 1186.470,382.822 C1193.158,382.822 1199.115,382.128 1204.340,380.737 C1209.565,379.349 1214.232,377.646 1218.344,375.629 C1222.452,373.616 1226.077,371.391 1229.212,368.958 C1232.347,366.528 1235.237,364.303 1237.886,362.286 C1240.531,360.273 1242.971,358.570 1245.201,357.179 C1247.429,355.791 1249.659,355.094 1251.890,355.094 C1254.398,355.094 1256.697,356.276 1258.787,358.638 L1267.983,370.104 C1260.877,377.473 1253.944,383.760 1247.187,388.972 C1240.427,394.184 1233.497,398.529 1226.391,402.002 C1219.284,405.477 1211.864,408.015 1204.131,409.611 C1196.398,411.207 1188.070,412.009 1179.154,412.009 C1167.032,412.009 1156.163,409.992 1146.549,405.963 C1136.934,401.933 1128.783,396.200 1122.095,388.763 C1115.406,381.330 1110.250,372.329 1106.628,361.765 C1103.003,351.205 1101.194,339.390 1101.194,326.324 C1101.194,315.483 1102.343,304.678 1104.642,293.906 C1106.941,283.136 1110.286,272.885 1114.675,263.155 C1119.064,253.428 1124.426,244.392 1130.769,236.053 C1137.107,227.714 1144.354,220.521 1152.506,214.475 C1160.657,208.429 1169.644,203.670 1179.468,200.194 C1189.291,196.722 1199.846,194.983 1211.133,194.983 C1221.861,194.983 1231.126,196.514 1238.931,199.569 C1246.733,202.628 1253.144,206.520 1258.160,211.244 C1263.176,215.970 1266.902,221.182 1269.342,226.880 C1271.778,232.580 1273.000,238.001 1273.000,243.141 C1273.000,252.314 1271.119,260.757 1267.356,268.471 ZM1238.095,236.782 C1236.978,234.072 1235.202,231.606 1232.765,229.381 C1230.326,227.160 1227.155,225.316 1223.255,223.857 C1219.353,222.397 1214.614,221.668 1209.043,221.668 C1200.264,221.668 1192.181,223.476 1184.798,227.088 C1177.410,230.704 1170.862,235.672 1165.151,241.994 C1159.436,248.320 1154.560,255.754 1150.520,264.302 C1146.477,272.849 1143.342,282.058 1141.114,291.925 C1162.571,289.286 1179.781,286.264 1192.740,282.856 C1205.699,279.452 1215.659,275.768 1222.628,271.807 C1229.594,267.846 1234.192,263.572 1236.423,258.985 C1238.650,254.399 1239.767,249.604 1239.767,244.600 C1239.767,242.099 1239.209,239.493 1238.095,236.782 ZM1024.075,409.090 C1019.196,409.090 1015.888,407.839 1014.147,405.337 C1012.403,402.836 1011.535,399.780 1011.535,396.164 L1015.506,352.175 C1010.209,361.212 1004.428,369.411 998.158,376.776 C991.888,384.144 985.304,390.431 978.407,395.643 C971.509,400.855 964.331,404.888 956.878,407.735 C949.423,410.582 941.862,412.009 934.201,412.009 C916.086,412.009 902.046,405.442 892.085,392.307 C882.122,379.173 877.141,360.097 877.141,335.080 C877.141,323.685 878.324,312.287 880.694,300.890 C883.062,289.495 886.442,278.582 890.831,268.158 C895.221,257.735 900.514,248.040 906.716,239.076 C912.915,230.111 919.812,222.365 927.408,215.830 C935.001,209.299 943.257,204.156 952.176,200.403 C961.091,196.650 970.428,194.774 980.183,194.774 C990.493,194.774 999.935,196.790 1008.504,200.820 C1017.073,204.853 1024.353,210.618 1030.345,218.124 L1044.767,102.001 L1081.344,102.001 L1043.304,409.090 L1024.075,409.090 ZM1007.981,228.339 C1000.594,225.284 993.142,223.753 985.617,223.753 C974.608,223.753 964.680,227.020 955.833,233.551 C946.983,240.086 939.459,248.529 933.260,258.881 C927.059,269.237 922.287,280.807 918.943,293.593 C915.599,306.382 913.927,318.959 913.927,331.327 C913.927,347.869 916.922,360.482 922.914,369.166 C928.904,377.854 937.336,382.196 948.205,382.196 C954.893,382.196 961.614,380.147 968.374,376.046 C975.131,371.948 981.679,366.248 988.021,358.951 C994.360,351.654 1000.281,342.970 1005.787,332.891 C1011.290,322.816 1016.061,311.802 1020.104,299.847 L1027.001,243.975 C1021.704,236.610 1015.365,231.398 1007.981,228.339 ZM820.401,373.649 C810.714,385.463 799.255,394.809 786.018,401.689 C772.779,408.569 758.566,412.009 743.380,412.009 C731.813,412.009 721.225,410.028 711.611,406.067 C701.997,402.106 693.705,396.373 686.739,388.868 C679.770,381.362 674.335,372.189 670.436,361.348 C666.533,350.507 664.584,338.139 664.584,324.239 C664.584,306.450 667.369,289.703 672.944,273.996 C678.516,258.292 686.144,244.532 695.831,232.717 C705.514,220.906 716.941,211.592 730.108,204.781 C743.276,197.973 757.521,194.566 772.851,194.566 C784.415,194.566 795.006,196.546 804.620,200.507 C814.235,204.468 822.523,210.201 829.492,217.707 C836.458,225.212 841.893,234.421 845.795,245.330 C849.695,256.243 851.647,268.575 851.647,282.335 C851.647,299.987 848.858,316.666 843.287,332.370 C837.712,348.077 830.084,361.837 820.401,373.649 ZM802.739,238.555 C795.074,228.688 783.997,223.753 769.507,223.753 C759.193,223.753 749.892,226.499 741.604,231.987 C733.312,237.480 726.242,244.845 720.389,254.086 C714.537,263.331 710.007,273.996 706.804,286.088 C703.597,298.179 701.997,310.828 701.997,324.031 C701.997,343.491 705.791,358.189 713.388,368.124 C720.980,378.062 732.094,383.030 746.725,383.030 C756.894,383.030 766.162,380.251 774.523,374.691 C782.883,369.134 789.990,361.733 795.842,352.488 C801.694,343.247 806.220,332.578 809.427,320.487 C812.631,308.395 814.235,295.749 814.235,282.543 C814.235,263.087 810.401,248.425 802.739,238.555 ZM635.323,240.639 C634.069,241.336 632.674,241.682 631.143,241.682 C629.190,241.682 627.276,240.815 625.395,239.076 C623.514,237.339 621.074,235.395 618.080,233.238 C615.082,231.085 611.319,229.140 606.793,227.401 C602.263,225.665 596.447,224.795 589.341,224.795 C579.726,224.795 570.634,227.401 562.065,232.613 C553.496,237.825 546.004,244.949 539.596,253.982 C533.186,263.018 528.134,273.719 524.443,286.088 C520.750,298.460 518.904,311.730 518.904,325.907 C518.904,334.526 519.878,342.344 521.831,349.361 C523.780,356.381 526.706,362.358 530.609,367.290 C534.508,372.225 539.283,376.046 544.926,378.756 C550.569,381.467 557.153,382.822 564.678,382.822 C570.948,382.822 576.519,382.164 581.398,380.841 C586.274,379.522 590.595,377.890 594.357,375.942 C598.119,373.997 601.427,371.877 604.285,369.583 C607.139,367.290 609.719,365.173 612.018,363.225 C614.317,361.280 616.408,359.648 618.289,358.325 C620.170,357.006 622.083,356.345 624.036,356.345 C626.822,356.345 629.190,357.527 631.143,359.889 L640.339,371.147 C633.092,379.069 626.231,385.672 619.752,390.952 C613.272,396.236 606.757,400.438 600.209,403.565 C593.658,406.692 586.865,408.881 579.831,410.132 C572.793,411.383 565.233,412.009 557.153,412.009 C544.890,412.009 534.058,409.924 524.652,405.754 C515.247,401.585 507.373,395.715 501.034,388.138 C494.692,380.564 489.885,371.460 486.612,360.827 C483.337,350.195 481.701,338.487 481.701,325.699 C481.701,308.603 484.382,292.205 489.748,276.498 C495.110,260.793 502.602,246.894 512.216,234.802 C521.831,222.710 533.254,213.052 546.494,205.823 C559.730,198.598 574.292,194.983 590.177,194.983 C604.109,194.983 615.813,197.452 625.290,202.383 C634.764,207.319 643.056,214.511 650.163,223.961 L638.458,237.929 C637.622,239.043 636.577,239.945 635.323,240.639 ZM461.851,221.355 C460.597,223.788 459.202,225.977 457.671,227.922 L335.609,380.111 L440.114,380.111 L436.770,409.090 L287.537,409.090 L289.418,393.663 C289.695,391.858 290.427,389.737 291.612,387.304 C292.795,384.874 294.225,382.545 295.897,380.320 L418.586,227.088 L315.753,227.088 L319.306,197.901 L466.031,197.901 L464.150,213.746 C463.869,216.387 463.105,218.925 461.851,221.355 ZM202.052,409.090 L227.551,197.901 L264.128,197.901 L238.629,409.090 L202.052,409.090 ZM196.099,132.963 C194.496,133.449 192.442,133.690 189.933,133.690 C188.679,133.690 187.321,133.690 185.858,133.690 C184.395,133.690 182.827,133.690 181.155,133.690 C175.162,133.690 169.624,134.556 164.539,136.289 C159.451,138.022 154.957,140.827 151.058,144.707 C147.155,148.586 143.879,153.645 141.234,159.880 C138.586,166.115 136.704,173.737 135.591,182.741 L133.083,202.071 L185.962,202.071 L182.409,228.756 L130.993,228.756 L109.883,402.210 L100.268,445.365 C97.897,455.789 91.490,461.001 81.039,461.001 L66.409,461.001 L94.625,229.381 L73.724,226.671 C71.353,225.977 69.472,225.003 68.081,223.753 C66.686,222.502 65.991,220.697 65.991,218.332 L67.663,202.071 L97.969,202.071 L100.477,181.640 C102.009,169.548 105.040,158.811 109.569,149.430 C114.096,140.048 119.811,132.126 126.708,125.663 C133.605,119.201 141.476,114.301 150.326,110.966 C159.173,107.630 168.683,105.962 178.856,105.962 C187.494,105.962 195.368,107.389 202.474,110.236 L198.921,129.331 C198.640,131.270 197.699,132.481 196.099,132.963 Z" class="LLG-1"/>\\r\\n\\t\\t\\t\\t\\t\\t\\t\\t  <g>\\r\\n\\t\\t\\t\\t\\t\\t\\t\\t    <ellipse cx="253.297" cy="143.703" rx="19.891" ry="20.297" class="LLG-2"/>\\r\\n\\t\\t\\t\\t\\t\\t\\t\\t    <ellipse cx="295.11" cy="106.25" rx="19.891" ry="20.281" class="LLG-2"/>\\r\\n\\t\\t\\t\\t\\t\\t\\t\\t    <ellipse cx="236.453" cy="82.828" rx="23.453" ry="23.922" class="LLG-2"/>\\r\\n\\t\\t\\t\\t\\t\\t\\t\\t    <g>\\r\\n\\t\\t\\t\\t\\t\\t\\t\\t      <path d="M275.410,38.217 L275.410,38.217 C276.112,37.872 277.052,38.220 277.508,38.994 L279.163,41.796 C279.619,42.570 279.420,43.477 278.718,43.821 L278.718,43.821 C278.016,44.166 277.077,43.818 276.620,43.044 L274.966,40.242 C274.509,39.468 274.708,38.562 275.410,38.217 Z" class="LLG-1"/>\\r\\n\\t\\t\\t\\t\\t\\t\\t\\t      <path d="M269.503,44.207 L269.503,44.207 C269.927,43.441 270.835,43.197 271.532,43.661 L274.052,45.341 C274.748,45.806 274.969,46.802 274.544,47.568 L274.544,47.568 C274.120,48.334 273.212,48.578 272.516,48.114 L269.996,46.433 C269.300,45.969 269.079,44.972 269.503,44.207 Z" class="LLG-1"/>\\r\\n\\t\\t\\t\\t\\t\\t\\t\\t      <path d="M267.143,53.051 L267.143,53.051 C267.162,52.156 267.838,51.445 268.653,51.465 L271.604,51.534 C272.418,51.553 273.063,52.294 273.044,53.189 L273.044,53.189 C273.025,54.084 272.349,54.794 271.534,54.775 L268.583,54.706 C267.768,54.687 267.123,53.946 267.143,53.051 Z" class="LLG-1"/>\\r\\n\\t\\t\\t\\t\\t\\t\\t\\t      <path d="M269.325,61.995 L269.325,61.995 C268.987,61.279 269.329,60.321 270.087,59.855 L272.835,58.168 C273.593,57.702 274.482,57.905 274.820,58.621 L274.820,58.621 C275.158,59.337 274.817,60.295 274.058,60.761 L271.311,62.448 C270.552,62.913 269.663,62.711 269.325,61.995 Z" class="LLG-1"/>\\r\\n\\t\\t\\t\\t\\t\\t\\t\\t      <path d="M275.198,68.019 L275.198,68.019 C274.448,67.587 274.208,66.661 274.663,65.951 L276.311,63.380 C276.766,62.670 277.743,62.445 278.494,62.878 L278.494,62.878 C279.245,63.310 279.484,64.236 279.029,64.946 L277.381,67.517 C276.926,68.227 275.949,68.452 275.198,68.019 Z" class="LLG-1"/>\\r\\n\\t\\t\\t\\t\\t\\t\\t\\t      <path d="M283.870,70.427 L283.870,70.427 C282.992,70.407 282.296,69.718 282.315,68.887 L282.382,65.877 C282.401,65.046 283.128,64.388 284.005,64.408 L284.005,64.408 C284.883,64.428 285.579,65.117 285.561,65.948 L285.493,68.958 C285.474,69.789 284.747,70.447 283.870,70.427 Z" class="LLG-1"/>\\r\\n\\t\\t\\t\\t\\t\\t\\t\\t      <path d="M292.265,68.397 L292.265,68.397 C291.550,68.740 290.594,68.394 290.128,67.625 L288.444,64.839 C287.979,64.070 288.182,63.168 288.896,62.826 L288.896,62.826 C289.611,62.483 290.568,62.829 291.033,63.598 L292.717,66.384 C293.182,67.153 292.980,68.055 292.265,68.397 Z" class="LLG-1"/>\\r\\n\\t\\t\\t\\t\\t\\t\\t\\t      <path d="M298.279,62.442 L298.279,62.442 C297.848,63.204 296.923,63.447 296.214,62.985 L293.648,61.314 C292.939,60.853 292.715,59.862 293.147,59.101 L293.147,59.101 C293.578,58.340 294.503,58.097 295.212,58.558 L297.778,60.229 C298.487,60.690 298.711,61.681 298.279,62.442 Z" class="LLG-1"/>\\r\\n\\t\\t\\t\\t\\t\\t\\t\\t      <path d="M300.683,53.650 L300.683,53.650 C300.664,54.540 299.975,55.246 299.146,55.227 L296.141,55.158 C295.311,55.139 294.655,54.402 294.674,53.513 L294.674,53.513 C294.694,52.623 295.382,51.917 296.212,51.936 L299.217,52.005 C300.046,52.024 300.703,52.760 300.683,53.650 Z" class="LLG-1"/>\\r\\n\\t\\t\\t\\t\\t\\t\\t\\t      <path d="M298.240,44.425 L298.240,44.425 C298.582,45.161 298.273,46.164 297.552,46.666 L294.938,48.483 C294.216,48.985 293.354,48.795 293.012,48.058 L293.012,48.058 C292.671,47.322 292.979,46.319 293.701,45.817 L296.315,44.000 C297.037,43.498 297.899,43.688 298.240,44.425 Z" class="LLG-1"/>\\r\\n\\t\\t\\t\\t\\t\\t\\t\\t      <path d="M292.443,38.301 L292.443,38.301 C293.177,38.733 293.428,39.689 293.005,40.438 L291.471,43.147 C291.047,43.896 290.109,44.152 289.375,43.720 L289.375,43.720 C288.642,43.288 288.390,42.331 288.814,41.583 L290.348,38.873 C290.771,38.125 291.709,37.869 292.443,38.301 Z" class="LLG-1"/>\\r\\n\\t\\t\\t\\t\\t\\t\\t\\t      <path d="M284.136,36.000 L284.136,36.000 C283.285,36.019 282.610,36.704 282.628,37.529 L282.694,40.516 C282.712,41.341 283.416,41.994 284.267,41.974 L284.267,41.974 C285.118,41.955 285.794,41.270 285.776,40.445 L285.710,37.458 C285.691,36.633 284.987,35.980 284.136,36.000 Z" class="LLG-1"/>\\r\\n\\t\\t\\t\\t\\t\\t\\t\\t    </g>\\r\\n\\t\\t\\t\\t\\t\\t\\t\\t  </g>\\r\\n\\t\\t\\t\\t\\t\\t\\t\\t</svg>\\r\\n\\t\\t\\t\\t\\t\\t\\t\\t<svg xmlns="http://www.w3.org/2000/svg" xmlns:xlink="http://www.w3.org/1999/xlink" preserveAspectRatio="xMidYMid" width="32" height="32" viewBox="0 0 512 512">\\r\\n\\t\\t\\t\\t\\t\\t\\t\\t  <g>\\r\\n\\t\\t\\t\\t\\t\\t\\t\\t    <path d="M217.829,338.288 C256.493,338.288 287.836,370.235 287.836,409.644 C287.836,449.053 256.493,481.000 217.829,481.000 C179.165,481.000 147.822,449.053 147.822,409.644 C147.822,370.235 179.165,338.288 217.829,338.288 Z" class="SLG-1"/>\\r\\n\\t\\t\\t\\t\\t\\t\\t\\t    <path d="M364.993,206.671 C403.657,206.671 435.000,238.594 435.000,277.973 C435.000,317.351 403.657,349.274 364.993,349.274 C326.329,349.274 294.986,317.351 294.986,277.973 C294.986,238.594 326.329,206.671 364.993,206.671 Z" class="SLG-1"/>\\r\\n\\t\\t\\t\\t\\t\\t\\t\\t    <path d="M158.546,111.530 C204.135,111.530 241.092,149.183 241.092,195.630 C241.092,242.077 204.135,279.730 158.546,279.730 C112.957,279.730 76.000,242.077 76.000,195.630 C76.000,149.183 112.957,111.530 158.546,111.530 Z" class="SLG-1"/>\\r\\n\\t\\t\\t\\t\\t\\t\\t\\t    <g>\\r\\n\\t\\t\\t\\t\\t\\t\\t\\t      <path d="M295.659,38.794 L295.659,38.794 C298.130,37.582 301.437,38.806 303.044,41.526 L308.866,51.377 C310.474,54.097 309.774,57.285 307.303,58.496 L307.303,58.496 C304.832,59.708 301.526,58.485 299.918,55.764 L294.097,45.913 C292.489,43.193 293.189,40.005 295.659,38.794 Z" class="SLG-1"/>\\r\\n\\t\\t\\t\\t\\t\\t\\t\\t      <path d="M274.870,59.852 L274.870,59.852 C276.362,57.160 279.558,56.301 282.008,57.932 L290.879,63.841 C293.329,65.473 294.105,68.978 292.612,71.669 L292.612,71.669 C291.120,74.361 287.924,75.220 285.474,73.589 L276.603,67.680 C274.153,66.048 273.377,62.543 274.870,59.852 Z" class="SLG-1"/>\\r\\n\\t\\t\\t\\t\\t\\t\\t\\t      <path d="M266.561,90.944 L266.561,90.944 C266.628,87.797 269.008,85.301 271.876,85.368 L282.261,85.611 C285.129,85.678 287.399,88.284 287.331,91.431 L287.331,91.431 C287.263,94.578 284.884,97.074 282.016,97.007 L271.631,96.764 C268.763,96.697 266.493,94.091 266.561,90.944 Z" class="SLG-1"/>\\r\\n\\t\\t\\t\\t\\t\\t\\t\\t      <path d="M274.243,122.388 L274.243,122.388 C273.054,119.870 274.254,116.502 276.925,114.865 L286.594,108.934 C289.265,107.296 292.393,108.009 293.583,110.526 L293.583,110.526 C294.772,113.043 293.571,116.411 290.901,118.049 L281.231,123.980 C278.561,125.618 275.432,124.905 274.243,122.388 Z" class="SLG-1"/>\\r\\n\\t\\t\\t\\t\\t\\t\\t\\t      <path d="M294.913,143.567 L294.913,143.567 C292.271,142.047 291.428,138.791 293.029,136.295 L298.829,127.258 C300.431,124.762 303.871,123.972 306.513,125.492 L306.513,125.492 C309.155,127.013 309.999,130.269 308.397,132.764 L302.597,141.802 C300.996,144.297 297.555,145.088 294.913,143.567 Z" class="SLG-1"/>\\r\\n\\t\\t\\t\\t\\t\\t\\t\\t      <path d="M325.433,152.032 L325.433,152.032 C322.344,151.963 319.894,149.539 319.960,146.617 L320.199,136.037 C320.264,133.116 322.822,130.803 325.911,130.872 L325.911,130.872 C329.000,130.941 331.451,133.366 331.385,136.287 L331.146,146.867 C331.080,149.789 328.522,152.101 325.433,152.032 Z" class="SLG-1"/>\\r\\n\\t\\t\\t\\t\\t\\t\\t\\t      <path d="M354.981,144.896 L354.981,144.896 C352.465,146.101 349.099,144.885 347.462,142.180 L341.534,132.387 C339.897,129.682 340.610,126.514 343.125,125.309 L343.125,125.309 C345.641,124.105 349.008,125.321 350.645,128.025 L356.573,137.819 C358.209,140.523 357.497,143.692 354.981,144.896 Z" class="SLG-1"/>\\r\\n\\t\\t\\t\\t\\t\\t\\t\\t      <path d="M376.150,123.962 L376.150,123.962 C374.630,126.638 371.376,127.492 368.882,125.870 L359.849,119.996 C357.354,118.374 356.564,114.890 358.084,112.214 L358.084,112.214 C359.604,109.538 362.858,108.683 365.352,110.305 L374.385,116.179 C376.880,117.802 377.670,121.286 376.150,123.962 Z" class="SLG-1"/>\\r\\n\\t\\t\\t\\t\\t\\t\\t\\t      <path d="M384.611,93.052 L384.611,93.052 C384.541,96.180 382.118,98.662 379.198,98.595 L368.624,98.353 C365.704,98.286 363.392,95.696 363.461,92.568 L363.461,92.568 C363.530,89.439 365.953,86.957 368.873,87.024 L379.448,87.266 C382.368,87.333 384.679,89.923 384.611,93.052 Z" class="SLG-1"/>\\r\\n\\t\\t\\t\\t\\t\\t\\t\\t      <path d="M376.012,60.618 L376.012,60.618 C377.214,63.206 376.129,66.734 373.588,68.498 L364.388,74.885 C361.848,76.649 358.814,75.981 357.612,73.393 L357.612,73.393 C356.409,70.805 357.495,67.277 360.035,65.513 L369.235,59.125 C371.776,57.361 374.810,58.029 376.012,60.618 Z" class="SLG-1"/>\\r\\n\\t\\t\\t\\t\\t\\t\\t\\t      <path d="M355.608,39.088 L355.608,39.088 C358.191,40.607 359.075,43.971 357.585,46.601 L352.186,56.127 C350.695,58.758 347.393,59.659 344.811,58.141 L344.811,58.141 C342.229,56.622 341.344,53.258 342.835,50.627 L348.233,41.101 C349.724,38.470 353.026,37.569 355.608,39.088 Z" class="SLG-1"/>\\r\\n\\t\\t\\t\\t\\t\\t\\t\\t      <path d="M326.370,30.999 L326.370,30.999 C323.375,31.067 320.998,33.474 321.062,36.374 L321.294,46.876 C321.358,49.776 323.838,52.071 326.833,52.003 L326.833,52.003 C329.829,51.934 332.205,49.528 332.141,46.628 L331.909,36.126 C331.845,33.226 329.365,30.930 326.370,30.999 Z" class="SLG-1"/>\\r\\n\\t\\t\\t\\t\\t\\t\\t\\t    </g>\\r\\n\\t\\t\\t\\t\\t\\t\\t\\t  </g>\\r\\n\\t\\t\\t\\t\\t\\t\\t\\t</svg>\\r\\n\\t\\t\\t\\t\\t\\t\\t</div>\\r\\n\\t\\t\\t\\t\\t\\t</li>\\r\\n\\t\\t\\t\\t\\t</a>\\r\\n\\t\\t\\t\\t\\t<a href="#signup">\\r\\n\\t\\t\\t\\t\\t\\t<li class="right callToAction OrangeButton">Registrarse</li>\\r\\n\\t\\t\\t\\t\\t</a>\\r\\n\\t\\t\\t\\t\\t<a href="#login">\\r\\n\\t\\t\\t\\t\\t\\t<li class="right softUnderline size18">Iniciar Sesi\\xc3\\xb3n</li>\\r\\n\\t\\t\\t\\t\\t</a>\\r\\n\\t\\t\\t\\t</ul>\\r\\n\\t\\t\\t</nav>\\r\\n\\t\\t</header>\\r\\n\\t\\t<main>\\r\\n\\t\\t\\t<span class="space50 block"></span>\\r\\n\\t\\t\\t<section id="second">\\r\\n\\t\\t\\t\\t<article class="centered1440px">\\r\\n\\t\\t\\t\\t\\t<span class="space20 block"></span>\\r\\n\\t\\t\\t\\t\\t<h1 class="size30">De Fizcode, Para ti!</h1>\\r\\n\\t\\t\\t\\t\\t<h3 class="size26">Nuestros cursos:</h3>\\r\\n\\t\\t\\t\\t\\t<span class="space20 block"></span>\\r\\n\\t\\t\\t\\t\\t<ul class="courses">\\r\\n\\t\\t\\t\\t\\t\\t\', escape=False)\nfor row in rows:\n    response.write(\'\\r\\n\\t\\t\\t\\t\\t\\t<li class="courseCard">\\r\\n\\t\\t\\t\\t\\t\\t\\t\\t<h3>\', escape=False)\n    rows.title\n    response.write(\'</h3>\\r\\n\\t\\t\\t\\t\\t\\t\\t\\t<img src="">\\r\\n\\t\\t\\t\\t\\t\\t\\t\\t<p>\', escape=False)\n    rows.body\n    response.write(\'</p>\\r\\n\\t\\t\\t\\t\\t\\t</li>\\r\\n\\t\\t\\t\\t\\t\\t\', escape=False)\n    pass\nresponse.write(\'\\r\\n\\t\\t\\t\\t\\t</ul>\\r\\n\\t\\t\\t\\t\\t<span class="blankSpace"></span>\\r\\n\\t\\t\\t\\t</article>\\r\\n\\t\\t\\t</section>\\r\\n\\t\\t</main>\\r\\n\\t\\t<footer>\\r\\n\\t\\t\\t<div class="centered1440px">\\r\\n\\t\\t\\t\\t<div class="clearFix">\\r\\n\\t\\t\\t\\t\\t<ul class="size14">\\r\\n\\t\\t\\t\\t\\t\\t<a href="">\\r\\n\\t\\t\\t\\t\\t\\t\\t<li class="strong">\\r\\n\\t\\t\\t\\t\\t\\t\\t\\tFizcode\\r\\n\\t\\t\\t\\t\\t\\t\\t</li>\\r\\n\\t\\t\\t\\t\\t\\t</a>\\r\\n\\t\\t\\t\\t\\t\\t<a href="">\\r\\n\\t\\t\\t\\t\\t\\t\\t<li>\\r\\n\\t\\t\\t\\t\\t\\t\\t\\t&copy; Copyright 2015\\r\\n\\t\\t\\t\\t\\t\\t\\t</li>\\r\\n\\t\\t\\t\\t\\t\\t</a>\\r\\n\\t\\t\\t\\t\\t\\t<a href="">\\r\\n\\t\\t\\t\\t\\t\\t\\t<li>\\r\\n\\t\\t\\t\\t\\t\\t\\t\\tAviso Legal\\r\\n\\t\\t\\t\\t\\t\\t\\t</li>\\r\\n\\t\\t\\t\\t\\t\\t</a>\\r\\n\\t\\t\\t\\t\\t\\t<a href="">\\r\\n\\t\\t\\t\\t\\t\\t\\t<li>\\r\\n\\t\\t\\t\\t\\t\\t\\t\\tContacto\\r\\n\\t\\t\\t\\t\\t\\t\\t</li>\\r\\n\\t\\t\\t\\t\\t\\t</a>\\r\\n\\t\\t\\t\\t\\t\\t<a href="">\\r\\n\\t\\t\\t\\t\\t\\t\\t<li>\\r\\n\\t\\t\\t\\t\\t\\t\\t\\tBlog\\r\\n\\t\\t\\t\\t\\t\\t\\t</li>\\r\\n\\t\\t\\t\\t\\t\\t</a>\\r\\n\\t\\t\\t\\t\\t</ul>\\r\\n\\t\\t\\t\\t</div>\\r\\n\\t\\t\\t</div>\\r\\n\\t\\t</footer>\\r\\n\\t</body>\\r\\n</html>\\r\\n\', escape=False)\nresponse.write(\'\\r\\n        \', escape=False)\nresponse.write(\'\\r\\n      </div>\\r\\n  </body>\\r\\n</html>\\r\\n\', escape=False)'
p7
sS'snapshot'
p8
(dp9
S'exception'
p10
(dp11
S'__hash__'
p12
S"<method-wrapper '__hash__' of exceptions.AttributeError object>"
p13
sS'__setattr__'
p14
S"<method-wrapper '__setattr__' of exceptions.AttributeError object>"
p15
sS'__reduce_ex__'
p16
S'<built-in method __reduce_ex__ of exceptions.AttributeError object>'
p17
sS'__getslice__'
p18
S"<method-wrapper '__getslice__' of exceptions.AttributeError object>"
p19
sS'__getitem__'
p20
S"<method-wrapper '__getitem__' of exceptions.AttributeError object>"
p21
sS'__setstate__'
p22
S'<built-in method __setstate__ of exceptions.AttributeError object>'
p23
sS'__reduce__'
p24
S'<built-in method __reduce__ of exceptions.AttributeError object>'
p25
sS'__str__'
p26
S"<method-wrapper '__str__' of exceptions.AttributeError object>"
p27
sS'__format__'
p28
S'<built-in method __format__ of exceptions.AttributeError object>'
p29
sS'__getattribute__'
p30
S"<method-wrapper '__getattribute__' of exceptions.AttributeError object>"
p31
sS'__class__'
p32
S"<type 'exceptions.AttributeError'>"
p33
sS'__unicode__'
p34
S'<built-in method __unicode__ of exceptions.AttributeError object>'
p35
sS'__delattr__'
p36
S"<method-wrapper '__delattr__' of exceptions.AttributeError object>"
p37
sS'__subclasshook__'
p38
S'<built-in method __subclasshook__ of type object>'
p39
sS'__repr__'
p40
S"<method-wrapper '__repr__' of exceptions.AttributeError object>"
p41
sS'args'
p42
S'("\'Rows\' object has no attribute \'title\'",)'
p43
sS'__dict__'
p44
S'{}'
p45
sS'__sizeof__'
p46
S'<built-in method __sizeof__ of exceptions.AttributeError object>'
p47
sS'__doc__'
p48
S"'Attribute not found.'"
p49
sS'__init__'
p50
S"<method-wrapper '__init__' of exceptions.AttributeError object>"
p51
sS'__new__'
p52
S'<built-in method __new__ of type object>'
p53
ssS'evalue'
p54
S"'Rows' object has no attribute 'title'"
p55
sS'request'
p56
cgluon.html
XML_unpickle
p57
(S's?`\x00\x00<div><table><tr><td style="font-weight:bold;vertical-align:top;">ajax</td><td style="vertical-align:top;">:</td><td><div>False</div></td></tr><tr><td style="font-weight:bold;vertical-align:top;">application</td><td style="vertical-align:top;">:</td><td><div>fizcode</div></td></tr><tr><td style="font-weight:bold;vertical-align:top;">args</td><td style="vertical-align:top;">:</td><td><div><table></table></div></td></tr><tr><td style="font-weight:bold;vertical-align:top;">cid</td><td style="vertical-align:top;">:</td><td><div>None</div></td></tr><tr><td style="font-weight:bold;vertical-align:top;">client</td><td style="vertical-align:top;">:</td><td><div>127.0.0.1</div></td></tr><tr><td style="font-weight:bold;vertical-align:top;">controller</td><td style="vertical-align:top;">:</td><td><div>default</div></td></tr><tr><td style="font-weight:bold;vertical-align:top;">cookies</td><td style="vertical-align:top;">:</td><td><div><table><tr><td style="font-weight:bold;vertical-align:top;">session_id_admin</td><td style="vertical-align:top;">:</td><td><div>127.0.0.1-617955c8-2b65-43cd-b47c-38cf943a2d6c<table><tr><td style="font-weight:bold;vertical-align:top;">comment</td><td style="vertical-align:top;">:</td><td><div></div></td></tr><tr><td style="font-weight:bold;vertical-align:top;">domain</td><td style="vertical-align:top;">:</td><td><div></div></td></tr><tr><td style="font-weight:bold;vertical-align:top;">expires</td><td style="vertical-align:top;">:</td><td><div></div></td></tr><tr><td style="font-weight:bold;vertical-align:top;">httponly</td><td style="vertical-align:top;">:</td><td><div></div></td></tr><tr><td style="font-weight:bold;vertical-align:top;">max-age</td><td style="vertical-align:top;">:</td><td><div></div></td></tr><tr><td style="font-weight:bold;vertical-align:top;">path</td><td style="vertical-align:top;">:</td><td><div></div></td></tr><tr><td style="font-weight:bold;vertical-align:top;">secure</td><td style="vertical-align:top;">:</td><td><div></div></td></tr><tr><td style="font-weight:bold;vertical-align:top;">version</td><td style="vertical-align:top;">:</td><td><div></div></td></tr></table></div></td></tr><tr><td style="font-weight:bold;vertical-align:top;">session_id_fizcode</td><td style="vertical-align:top;">:</td><td><div>127.0.0.1-32b29c49-31b0-4d0f-a74c-841495cab1f2<table><tr><td style="font-weight:bold;vertical-align:top;">comment</td><td style="vertical-align:top;">:</td><td><div></div></td></tr><tr><td style="font-weight:bold;vertical-align:top;">domain</td><td style="vertical-align:top;">:</td><td><div></div></td></tr><tr><td style="font-weight:bold;vertical-align:top;">expires</td><td style="vertical-align:top;">:</td><td><div></div></td></tr><tr><td style="font-weight:bold;vertical-align:top;">httponly</td><td style="vertical-align:top;">:</td><td><div></div></td></tr><tr><td style="font-weight:bold;vertical-align:top;">max-age</td><td style="vertical-align:top;">:</td><td><div></div></td></tr><tr><td style="font-weight:bold;vertical-align:top;">path</td><td style="vertical-align:top;">:</td><td><div></div></td></tr><tr><td style="font-weight:bold;vertical-align:top;">secure</td><td style="vertical-align:top;">:</td><td><div></div></td></tr><tr><td style="font-weight:bold;vertical-align:top;">version</td><td style="vertical-align:top;">:</td><td><div></div></td></tr></table></div></td></tr><tr><td style="font-weight:bold;vertical-align:top;">session_id_welcome</td><td style="vertical-align:top;">:</td><td><div>127.0.0.1-51512c93-9c0f-44b7-b804-924fa21f84c4<table><tr><td style="font-weight:bold;vertical-align:top;">comment</td><td style="vertical-align:top;">:</td><td><div></div></td></tr><tr><td style="font-weight:bold;vertical-align:top;">domain</td><td style="vertical-align:top;">:</td><td><div></div></td></tr><tr><td style="font-weight:bold;vertical-align:top;">expires</td><td style="vertical-align:top;">:</td><td><div></div></td></tr><tr><td style="font-weight:bold;vertical-align:top;">httponly</td><td style="vertical-align:top;">:</td><td><div></div></td></tr><tr><td style="font-weight:bold;vertical-align:top;">max-age</td><td style="vertical-align:top;">:</td><td><div></div></td></tr><tr><td style="font-weight:bold;vertical-align:top;">path</td><td style="vertical-align:top;">:</td><td><div></div></td></tr><tr><td style="font-weight:bold;vertical-align:top;">secure</td><td style="vertical-align:top;">:</td><td><div></div></td></tr><tr><td style="font-weight:bold;vertical-align:top;">version</td><td style="vertical-align:top;">:</td><td><div></div></td></tr></table></div></td></tr></table></div></td></tr><tr><td style="font-weight:bold;vertical-align:top;">env</td><td style="vertical-align:top;">:</td><td><div><table><tr><td style="font-weight:bold;vertical-align:top;">HTTP_ACCEPT</td><td style="vertical-align:top;">:</td><td><div>text/html,application/xhtml+xml,application/xml;q=0.9,image/webp,*/*;q=0.8</div></td></tr><tr><td style="font-weight:bold;vertical-align:top;">HTTP_ACCEPT_ENCODING</td><td style="vertical-align:top;">:</td><td><div>gzip, deflate, sdch</div></td></tr><tr><td style="font-weight:bold;vertical-align:top;">HTTP_ACCEPT_LANGUAGE</td><td style="vertical-align:top;">:</td><td><div>es-ES,es;q=0.8,en;q=0.6</div></td></tr><tr><td style="font-weight:bold;vertical-align:top;">HTTP_CONNECTION</td><td style="vertical-align:top;">:</td><td><div>keep-alive</div></td></tr><tr><td style="font-weight:bold;vertical-align:top;">HTTP_COOKIE</td><td style="vertical-align:top;">:</td><td><div>session_id_welcome=127.0.0.1-51512c93-9c0f-44b7-b804-924fa21f84c4; session_id_admin=127.0.0.1-617955c8-2b65-43cd-b47c-38cf943a2d6c; session_id_fizcode=127.0.0.1-32b29c49-31b0-4d0f-a74c-841495cab1f2</div></td></tr><tr><td style="font-weight:bold;vertical-align:top;">HTTP_HOST</td><td style="vertical-align:top;">:</td><td><div>127.0.0.1:8000</div></td></tr><tr><td style="font-weight:bold;vertical-align:top;">HTTP_UPGRADE_INSECURE_REQUESTS</td><td style="vertical-align:top;">:</td><td><div>1</div></td></tr><tr><td style="font-weight:bold;vertical-align:top;">HTTP_USER_AGENT</td><td style="vertical-align:top;">:</td><td><div>Mozilla/5.0 (Windows NT 10.0; WOW64) AppleWebKit/537.36 (KHTML, like Gecko) Chrome/44.0.2403.125 Safari/537.36</div></td></tr><tr><td style="font-weight:bold;vertical-align:top;">PATH_INFO</td><td style="vertical-align:top;">:</td><td><div>/fizcode/default/courses.html</div></td></tr><tr><td style="font-weight:bold;vertical-align:top;">QUERY_STRING</td><td style="vertical-align:top;">:</td><td><div></div></td></tr><tr><td style="font-weight:bold;vertical-align:top;">REMOTE_ADDR</td><td style="vertical-align:top;">:</td><td><div>127.0.0.1</div></td></tr><tr><td style="font-weight:bold;vertical-align:top;">REMOTE_PORT</td><td style="vertical-align:top;">:</td><td><div>54686</div></td></tr><tr><td style="font-weight:bold;vertical-align:top;">REQUEST_METHOD</td><td style="vertical-align:top;">:</td><td><div>GET</div></td></tr><tr><td style="font-weight:bold;vertical-align:top;">SCRIPT_NAME</td><td style="vertical-align:top;">:</td><td><div></div></td></tr><tr><td style="font-weight:bold;vertical-align:top;">SERVER_NAME</td><td style="vertical-align:top;">:</td><td><div>Max</div></td></tr><tr><td style="font-weight:bold;vertical-align:top;">SERVER_PORT</td><td style="vertical-align:top;">:</td><td><div>8000</div></td></tr><tr><td style="font-weight:bold;vertical-align:top;">SERVER_PROTOCOL</td><td style="vertical-align:top;">:</td><td><div>HTTP/1.1</div></td></tr><tr><td style="font-weight:bold;vertical-align:top;">SERVER_SOFTWARE</td><td style="vertical-align:top;">:</td><td><div>Rocket 1.2.6</div></td></tr><tr><td style="font-weight:bold;vertical-align:top;">app_folders</td><td style="vertical-align:top;">:</td><td><div>set([&#x27;C:\\\\Users\\\\maxse_000\\\\Downloads\\\\Installers_Setups\\\\web2py_win\\\\web2py\\\\applications\\\\welcome\\\\&#x27;, &#x27;C:\\\\Users\\\\maxse_000\\\\Downloads\\\\Installers_Setups\\\\web2py_win\\\\web2py\\\\applications\\\\admin\\\\&#x27;, &#x27;C:\\\\Users\\\\maxse_000\\\\Downloads\\\\Installers_Setups\\\\web2py_win\\\\web2py\\\\applications\\\\examples\\\\&#x27;, &#x27;C:\\\\Users\\\\maxse_000\\\\Downloads\\\\Installers_Setups\\\\web2py_win\\\\web2py\\\\applications\\\\fizcode\\\\&#x27;])</div></td></tr><tr><td style="font-weight:bold;vertical-align:top;">applications_parent</td><td style="vertical-align:top;">:</td><td><div>C:\\Users\\maxse_000\\Downloads\\Installers_Setups\\web2py_win\\web2py</div></td></tr><tr><td style="font-weight:bold;vertical-align:top;">cmd_args</td><td style="vertical-align:top;">:</td><td><div><table></table></div></td></tr><tr><td style="font-weight:bold;vertical-align:top;">cmd_options</td><td style="vertical-align:top;">:</td><td><div>&lt;Values at 0x2d98dc8: {&#x27;verbose&#x27;: False, &#x27;ip&#x27;: &#x27;127.0.0.1&#x27;, &#x27;debuglevel&#x27;: 30, &#x27;with_scheduler&#x27;: False, &#x27;ips&#x27;: [&#x27;fe80::10dd:2602:420c:188b%2&#x27;, &#x27;2001:0:9d38:90d7:10dd:2602:420c:188b&#x27;, &#x27;fe80::4014:2e8e:eb72:f0f8%12&#x27;, &#x27;192.168.1.143&#x27;], &#x27;shutdown_timeout&#x27;: 5, &#x27;taskbar&#x27;: False, &#x27;with_coverage&#x27;: False, &#x27;scheduler_groups&#x27;: None, &#x27;port&#x27;: 8000, &#x27;maxthreads&#x27;: None, &#x27;softcron&#x27;: False, &#x27;server_name&#x27;: &#x27;Max&#x27;, &#x27;bpython&#x27;: False, &#x27;nogui&#x27;: False, &#x27;pid_filename&#x27;: &#x27;httpserver.pid&#x27;, &#x27;print_errors&#x27;: False, &#x27;extcron&#x27;: False, &#x27;runcron&#x27;: False, &#x27;run_system_tests&#x27;: False, &#x27;test&#x27;: None, &#x27;folder&#x27;: &#x27;C:\\\\Users\\\\maxse_000\\\\Downloads\\\\Installers_Setups\\\\web2py_win\\\\web2py&#x27;, &#x27;config&#x27;: &#x27;&#x27;, &#x27;minthreads&#x27;: None, &#x27;shell&#x27;: None, &#x27;run&#x27;: &#x27;&#x27;, &#x27;log_filename&#x27;: &#x27;httpserver.log&#x27;, &#x27;profiler_dir&#x27;: None, &#x27;args&#x27;: [&#x27;&#x27;], &#x27;socket_timeout&#x27;: 5, &#x27;ssl_ca_certificate&#x27;: None, &#x27;scheduler&#x27;: None, &#x27;interfaces&#x27;: None, &#x27;ssl_private_key&#x27;: &#x27;&#x27;, &#x27;gae&#x27;: None, &#x27;password&#x27;: &#x27;&lt;ask&gt;&#x27;, &#x27;request_queue_size&#x27;: 5, &#x27;ssl_certificate&#x27;: &#x27;&#x27;, &#x27;cronjob&#x27;: False, &#x27;numthreads&#x27;: None, &#x27;quiet&#x27;: False, &#x27;import_models&#x27;: False, &#x27;timeout&#x27;: 10, &#x27;plain&#x27;: False, &#x27;nobanner&#x27;: False}&gt;</div></td></tr><tr><td style="font-weight:bold;vertical-align:top;">db_sessions</td><td style="vertical-align:top;">:</td><td><div>set([])</div></td></tr><tr><td style="font-weight:bold;vertical-align:top;">debugging</td><td style="vertical-align:top;">:</td><td><div>True</div></td></tr><tr><td style="font-weight:bold;vertical-align:top;">gluon_parent</td><td style="vertical-align:top;">:</td><td><div>C:\\Users\\maxse_000\\Downloads\\Installers_Setups\\web2py_win\\web2py</div></td></tr><tr><td style="font-weight:bold;vertical-align:top;">http_accept</td><td style="vertical-align:top;">:</td><td><div>text/html,application/xhtml+xml,application/xml;q=0.9,image/webp,*/*;q=0.8</div></td></tr><tr><td style="font-weight:bold;vertical-align:top;">http_accept_encoding</td><td style="vertical-align:top;">:</td><td><div>gzip, deflate, sdch</div></td></tr><tr><td style="font-weight:bold;vertical-align:top;">http_accept_language</td><td style="vertical-align:top;">:</td><td><div>es-ES,es;q=0.8,en;q=0.6</div></td></tr><tr><td style="font-weight:bold;vertical-align:top;">http_connection</td><td style="vertical-align:top;">:</td><td><div>keep-alive</div></td></tr><tr><td style="font-weight:bold;vertical-align:top;">http_cookie</td><td style="vertical-align:top;">:</td><td><div>session_id_welcome=127.0.0.1-51512c93-9c0f-44b7-b804-924fa21f84c4; session_id_admin=127.0.0.1-617955c8-2b65-43cd-b47c-38cf943a2d6c; session_id_fizcode=127.0.0.1-32b29c49-31b0-4d0f-a74c-841495cab1f2</div></td></tr><tr><td style="font-weight:bold;vertical-align:top;">http_host</td><td style="vertical-align:top;">:</td><td><div>127.0.0.1:8000</div></td></tr><tr><td style="font-weight:bold;vertical-align:top;">http_upgrade_insecure_requests</td><td style="vertical-align:top;">:</td><td><div>1</div></td></tr><tr><td style="font-weight:bold;vertical-align:top;">http_user_agent</td><td style="vertical-align:top;">:</td><td><div>Mozilla/5.0 (Windows NT 10.0; WOW64) AppleWebKit/537.36 (KHTML, like Gecko) Chrome/44.0.2403.125 Safari/537.36</div></td></tr><tr><td style="font-weight:bold;vertical-align:top;">is_jython</td><td style="vertical-align:top;">:</td><td><div>False</div></td></tr><tr><td style="font-weight:bold;vertical-align:top;">is_pypy</td><td style="vertical-align:top;">:</td><td><div>False</div></td></tr><tr><td style="font-weight:bold;vertical-align:top;">is_source</td><td style="vertical-align:top;">:</td><td><div>False</div></td></tr><tr><td style="font-weight:bold;vertical-align:top;">local_hosts</td><td style="vertical-align:top;">:</td><td><div><table><tr><td><div>fe80::4014:2e8e:eb72:f0f8%12</div></td></tr><tr><td><div>fe80::10dd:2602:420c:188b%2</div></td></tr><tr><td><div>Max</div></td></tr><tr><td><div>::ffff:127.0.0.1</div></td></tr><tr><td><div>::1</div></td></tr><tr><td><div>2001:0:9d38:90d7:10dd:2602:420c:188b</div></td></tr><tr><td><div>192.168.1.143</div></td></tr><tr><td><div>127.0.0.1</div></td></tr></table></div></td></tr><tr><td style="font-weight:bold;vertical-align:top;">path_info</td><td style="vertical-align:top;">:</td><td><div>/fizcode/default/courses.html</div></td></tr><tr><td style="font-weight:bold;vertical-align:top;">query_string</td><td style="vertical-align:top;">:</td><td><div></div></td></tr><tr><td style="font-weight:bold;vertical-align:top;">remote_addr</td><td style="vertical-align:top;">:</td><td><div>127.0.0.1</div></td></tr><tr><td style="font-weight:bold;vertical-align:top;">remote_port</td><td style="vertical-align:top;">:</td><td><div>54686</div></td></tr><tr><td style="font-weight:bold;vertical-align:top;">request_method</td><td style="vertical-align:top;">:</td><td><div>GET</div></td></tr><tr><td style="font-weight:bold;vertical-align:top;">request_uri</td><td style="vertical-align:top;">:</td><td><div>/fizcode/default/courses.html</div></td></tr><tr><td style="font-weight:bold;vertical-align:top;">script_name</td><td style="vertical-align:top;">:</td><td><div></div></td></tr><tr><td style="font-weight:bold;vertical-align:top;">server_name</td><td style="vertical-align:top;">:</td><td><div>Max</div></td></tr><tr><td style="font-weight:bold;vertical-align:top;">server_port</td><td style="vertical-align:top;">:</td><td><div>8000</div></td></tr><tr><td style="font-weight:bold;vertical-align:top;">server_protocol</td><td style="vertical-align:top;">:</td><td><div>HTTP/1.1</div></td></tr><tr><td style="font-weight:bold;vertical-align:top;">server_software</td><td style="vertical-align:top;">:</td><td><div>Rocket 1.2.6</div></td></tr><tr><td style="font-weight:bold;vertical-align:top;">web2py_path</td><td style="vertical-align:top;">:</td><td><div>C:\\Users\\maxse_000\\Downloads\\Installers_Setups\\web2py_win\\web2py</div></td></tr><tr><td style="font-weight:bold;vertical-align:top;">web2py_version</td><td style="vertical-align:top;">:</td><td><div>2.11.2-stable+timestamp.2015.05.30.16.33.24</div></td></tr><tr><td style="font-weight:bold;vertical-align:top;">wsgi.errors</td><td style="vertical-align:top;">:</td><td><div>&lt;open file &#x27;&lt;stderr&gt;&#x27;, mode &#x27;w&#x27; at 0x0200D0D0&gt;</div></td></tr><tr><td style="font-weight:bold;vertical-align:top;">wsgi.file_wrapper</td><td style="vertical-align:top;">:</td><td><div>&lt;class wsgiref.util.FileWrapper at 0x02DB0D18&gt;</div></td></tr><tr><td style="font-weight:bold;vertical-align:top;">wsgi.input</td><td style="vertical-align:top;">:</td><td><div>&lt;socket._fileobject object at 0x0865CC30&gt;</div></td></tr><tr><td style="font-weight:bold;vertical-align:top;">wsgi.multiprocess</td><td style="vertical-align:top;">:</td><td><div>False</div></td></tr><tr><td style="font-weight:bold;vertical-align:top;">wsgi.multithread</td><td style="vertical-align:top;">:</td><td><div>True</div></td></tr><tr><td style="font-weight:bold;vertical-align:top;">wsgi.run_once</td><td style="vertical-align:top;">:</td><td><div>False</div></td></tr><tr><td style="font-weight:bold;vertical-align:top;">wsgi.url_scheme</td><td style="vertical-align:top;">:</td><td><div>http</div></td></tr><tr><td style="font-weight:bold;vertical-align:top;">wsgi.version</td><td style="vertical-align:top;">:</td><td><div><table><tr><td><div>1</div></td></tr><tr><td><div>0</div></td></tr></table></div></td></tr><tr><td style="font-weight:bold;vertical-align:top;">wsgi_errors</td><td style="vertical-align:top;">:</td><td><div>&lt;open file &#x27;&lt;stderr&gt;&#x27;, mode &#x27;w&#x27; at 0x0200D0D0&gt;</div></td></tr><tr><td style="font-weight:bold;vertical-align:top;">wsgi_file_wrapper</td><td style="vertical-align:top;">:</td><td><div>&lt;class wsgiref.util.FileWrapper at 0x02DB0D18&gt;</div></td></tr><tr><td style="font-weight:bold;vertical-align:top;">wsgi_input</td><td style="vertical-align:top;">:</td><td><div>&lt;socket._fileobject object at 0x0865CC30&gt;</div></td></tr><tr><td style="font-weight:bold;vertical-align:top;">wsgi_multiprocess</td><td style="vertical-align:top;">:</td><td><div>False</div></td></tr><tr><td style="font-weight:bold;vertical-align:top;">wsgi_multithread</td><td style="vertical-align:top;">:</td><td><div>True</div></td></tr><tr><td style="font-weight:bold;vertical-align:top;">wsgi_run_once</td><td style="vertical-align:top;">:</td><td><div>False</div></td></tr><tr><td style="font-weight:bold;vertical-align:top;">wsgi_url_scheme</td><td style="vertical-align:top;">:</td><td><div>http</div></td></tr><tr><td style="font-weight:bold;vertical-align:top;">wsgi_version</td><td style="vertical-align:top;">:</td><td><div><table><tr><td><div>1</div></td></tr><tr><td><div>0</div></td></tr></table></div></td></tr></table></div></td></tr><tr><td style="font-weight:bold;vertical-align:top;">extension</td><td style="vertical-align:top;">:</td><td><div>html</div></td></tr><tr><td style="font-weight:bold;vertical-align:top;">folder</td><td style="vertical-align:top;">:</td><td><div>C:\\Users\\maxse_000\\Downloads\\Installers_Setups\\web2py_win\\web2py\\applications\\fizcode\\</div></td></tr><tr><td style="font-weight:bold;vertical-align:top;">function</td><td style="vertical-align:top;">:</td><td><div>courses</div></td></tr><tr><td style="font-weight:bold;vertical-align:top;">global_settings</td><td style="vertical-align:top;">:</td><td><div><table><tr><td style="font-weight:bold;vertical-align:top;">app_folders</td><td style="vertical-align:top;">:</td><td><div>set([&#x27;C:\\\\Users\\\\maxse_000\\\\Downloads\\\\Installers_Setups\\\\web2py_win\\\\web2py\\\\applications\\\\welcome\\\\&#x27;, &#x27;C:\\\\Users\\\\maxse_000\\\\Downloads\\\\Installers_Setups\\\\web2py_win\\\\web2py\\\\applications\\\\admin\\\\&#x27;, &#x27;C:\\\\Users\\\\maxse_000\\\\Downloads\\\\Installers_Setups\\\\web2py_win\\\\web2py\\\\applications\\\\examples\\\\&#x27;, &#x27;C:\\\\Users\\\\maxse_000\\\\Downloads\\\\Installers_Setups\\\\web2py_win\\\\web2py\\\\applications\\\\fizcode\\\\&#x27;])</div></td></tr><tr><td style="font-weight:bold;vertical-align:top;">applications_parent</td><td style="vertical-align:top;">:</td><td><div>C:\\Users\\maxse_000\\Downloads\\Installers_Setups\\web2py_win\\web2py</div></td></tr><tr><td style="font-weight:bold;vertical-align:top;">cmd_args</td><td style="vertical-align:top;">:</td><td><div><table></table></div></td></tr><tr><td style="font-weight:bold;vertical-align:top;">cmd_options</td><td style="vertical-align:top;">:</td><td><div>&lt;Values at 0x2d98dc8: {&#x27;verbose&#x27;: False, &#x27;ip&#x27;: &#x27;127.0.0.1&#x27;, &#x27;debuglevel&#x27;: 30, &#x27;with_scheduler&#x27;: False, &#x27;ips&#x27;: [&#x27;fe80::10dd:2602:420c:188b%2&#x27;, &#x27;2001:0:9d38:90d7:10dd:2602:420c:188b&#x27;, &#x27;fe80::4014:2e8e:eb72:f0f8%12&#x27;, &#x27;192.168.1.143&#x27;], &#x27;shutdown_timeout&#x27;: 5, &#x27;taskbar&#x27;: False, &#x27;with_coverage&#x27;: False, &#x27;scheduler_groups&#x27;: None, &#x27;port&#x27;: 8000, &#x27;maxthreads&#x27;: None, &#x27;softcron&#x27;: False, &#x27;server_name&#x27;: &#x27;Max&#x27;, &#x27;bpython&#x27;: False, &#x27;nogui&#x27;: False, &#x27;pid_filename&#x27;: &#x27;httpserver.pid&#x27;, &#x27;print_errors&#x27;: False, &#x27;extcron&#x27;: False, &#x27;runcron&#x27;: False, &#x27;run_system_tests&#x27;: False, &#x27;test&#x27;: None, &#x27;folder&#x27;: &#x27;C:\\\\Users\\\\maxse_000\\\\Downloads\\\\Installers_Setups\\\\web2py_win\\\\web2py&#x27;, &#x27;config&#x27;: &#x27;&#x27;, &#x27;minthreads&#x27;: None, &#x27;shell&#x27;: None, &#x27;run&#x27;: &#x27;&#x27;, &#x27;log_filename&#x27;: &#x27;httpserver.log&#x27;, &#x27;profiler_dir&#x27;: None, &#x27;args&#x27;: [&#x27;&#x27;], &#x27;socket_timeout&#x27;: 5, &#x27;ssl_ca_certificate&#x27;: None, &#x27;scheduler&#x27;: None, &#x27;interfaces&#x27;: None, &#x27;ssl_private_key&#x27;: &#x27;&#x27;, &#x27;gae&#x27;: None, &#x27;password&#x27;: &#x27;&lt;ask&gt;&#x27;, &#x27;request_queue_size&#x27;: 5, &#x27;ssl_certificate&#x27;: &#x27;&#x27;, &#x27;cronjob&#x27;: False, &#x27;numthreads&#x27;: None, &#x27;quiet&#x27;: False, &#x27;import_models&#x27;: False, &#x27;timeout&#x27;: 10, &#x27;plain&#x27;: False, &#x27;nobanner&#x27;: False}&gt;</div></td></tr><tr><td style="font-weight:bold;vertical-align:top;">db_sessions</td><td style="vertical-align:top;">:</td><td><div>set([])</div></td></tr><tr><td style="font-weight:bold;vertical-align:top;">debugging</td><td style="vertical-align:top;">:</td><td><div>True</div></td></tr><tr><td style="font-weight:bold;vertical-align:top;">gluon_parent</td><td style="vertical-align:top;">:</td><td><div>C:\\Users\\maxse_000\\Downloads\\Installers_Setups\\web2py_win\\web2py</div></td></tr><tr><td style="font-weight:bold;vertical-align:top;">is_jython</td><td style="vertical-align:top;">:</td><td><div>False</div></td></tr><tr><td style="font-weight:bold;vertical-align:top;">is_pypy</td><td style="vertical-align:top;">:</td><td><div>False</div></td></tr><tr><td style="font-weight:bold;vertical-align:top;">is_source</td><td style="vertical-align:top;">:</td><td><div>False</div></td></tr><tr><td style="font-weight:bold;vertical-align:top;">local_hosts</td><td style="vertical-align:top;">:</td><td><div><table><tr><td><div>fe80::4014:2e8e:eb72:f0f8%12</div></td></tr><tr><td><div>fe80::10dd:2602:420c:188b%2</div></td></tr><tr><td><div>Max</div></td></tr><tr><td><div>::ffff:127.0.0.1</div></td></tr><tr><td><div>::1</div></td></tr><tr><td><div>2001:0:9d38:90d7:10dd:2602:420c:188b</div></td></tr><tr><td><div>192.168.1.143</div></td></tr><tr><td><div>127.0.0.1</div></td></tr></table></div></td></tr><tr><td style="font-weight:bold;vertical-align:top;">web2py_version</td><td style="vertical-align:top;">:</td><td><div>2.11.2-stable+timestamp.2015.05.30.16.33.24</div></td></tr></table></div></td></tr><tr><td style="font-weight:bold;vertical-align:top;">is_https</td><td style="vertical-align:top;">:</td><td><div>False</div></td></tr><tr><td style="font-weight:bold;vertical-align:top;">is_local</td><td style="vertical-align:top;">:</td><td><div>True</div></td></tr><tr><td style="font-weight:bold;vertical-align:top;">is_restful</td><td style="vertical-align:top;">:</td><td><div>False</div></td></tr><tr><td style="font-weight:bold;vertical-align:top;">is_sheduler</td><td style="vertical-align:top;">:</td><td><div>None</div></td></tr><tr><td style="font-weight:bold;vertical-align:top;">is_shell</td><td style="vertical-align:top;">:</td><td><div>None</div></td></tr><tr><td style="font-weight:bold;vertical-align:top;">now</td><td style="vertical-align:top;">:</td><td><div>datetime.datetime(2015, 8, 3, 21, 54, 34, 577000)</div></td></tr><tr><td style="font-weight:bold;vertical-align:top;">raw_args</td><td style="vertical-align:top;">:</td><td><div></div></td></tr><tr><td style="font-weight:bold;vertical-align:top;">raw_extension</td><td style="vertical-align:top;">:</td><td><div>html</div></td></tr><tr><td style="font-weight:bold;vertical-align:top;">url</td><td style="vertical-align:top;">:</td><td><div>/fizcode/default/courses.html</div></td></tr><tr><td style="font-weight:bold;vertical-align:top;">utcnow</td><td style="vertical-align:top;">:</td><td><div>datetime.datetime(2015, 8, 4, 2, 54, 34, 577000)</div></td></tr><tr><td style="font-weight:bold;vertical-align:top;">wsgi</td><td style="vertical-align:top;">:</td><td><div>&lt;gluon.main.LazyWSGI object at 0x08CE9210&gt;</div></td></tr></table></div>'
tRp58
sS'frames'
p59
(lp60
(dp61
S'file'
p62
S'C:\\Users\\maxse_000\\Downloads\\Installers_Setups\\web2py_win\\web2py\\gluon\\restricted.py'
p63
sS'dump'
p64
(dp65
S'environment'
p66
S"{'A': <class 'gluon.html.A'>, 'ANY_OF': <class 'gluon.validators.ANY_OF'>, 'ASSIGNJS': <function ASSIGNJS>, 'AppConfig': <function AppConfig>, 'Auth': <class 'gluon.tools.Auth'>, 'B': <class 'gluon.html.B'>, 'BEAUTIFY': <class 'gluon.html.BEAUTIFY'>, 'BODY': <class 'gluon.html.BODY'>, 'BR': <class 'gluon.html.BR'>, 'BUTTON': <class 'gluon.html.BUTTON'>, ...}"
p67
sS'ccode'
p68
S'<code object <module> at 0752B4A0, file "C:\\User...ions\\fizcode\\views\\default/courses.html", line 1>'
p69
ssS'lnum'
p70
I227
sS'lines'
p71
(dp72
I224
S'            ccode = code'
p73
sI225
S'        else:'
p74
sI226
S'            ccode = compile2(code, layer)'
p75
sI227
S'        exec ccode in environment'
p76
sI228
S'    except HTTP:'
p77
sI229
S'        raise'
p78
sI230
S'    except RestrictedError:'
p79
sI231
S'        # do not encapsulate (obfuscate) the original RestrictedError'
p80
sI222
S'    try:'
p81
sI223
S'        if isinstance(code, types.CodeType):'
p82
ssS'call'
p83
S'(code=\'response.write(\\\'<!DOCTYPE html>\\\\r\\\\n<html lang="\\\'.../div>\\\\r\\\\n  </body>\\\\r\\\\n</html>\\\\r\\\\n\\\', escape=False)\', environment={\'A\': <class \'gluon.html.A\'>, \'ANY_OF\': <class \'gluon.validators.ANY_OF\'>, \'ASSIGNJS\': <function ASSIGNJS>, \'AppConfig\': <function AppConfig>, \'Auth\': <class \'gluon.tools.Auth\'>, \'B\': <class \'gluon.html.B\'>, \'BEAUTIFY\': <class \'gluon.html.BEAUTIFY\'>, \'BODY\': <class \'gluon.html.BODY\'>, \'BR\': <class \'gluon.html.BR\'>, \'BUTTON\': <class \'gluon.html.BUTTON\'>, ...}, layer=r\'C:\\Users\\maxse_000\\Downloads\\Installers_Setups\\w...y\\applications\\fizcode\\views\\default/courses.html\')'
p84
sS'func'
p85
S'restricted'
p86
sa(dp87
g62
S'C:\\Users\\maxse_000\\Downloads\\Installers_Setups\\web2py_win\\web2py\\applications\\fizcode\\views\\default\\courses.html'
p88
sg64
(dp89
S'g'
S'undefined'
p90
ssg70
I72
sg71
(dp91
I64
S"response.write(URL('static','css/courses-medium.css'))"
p92
sI65
S'response.write(\'" media="screen and (min-width:700px) and (max-width:1300px)">\\r\\n\\t\\t<link rel="stylesheet" href="\', escape=False)'
p93
sI66
S"response.write(URL('static','css/courses-large.css'))"
p94
sI67
S'response.write(\'" media="screen and (min-width:1300px)">\\r\\n\\t\\t<link rel="shortcut icon" href="\', escape=False)'
p95
sI68
S"response.write(URL('static','images/FizcodeIcon.ico'))"
p96
sI69
S'response.write(\'">\\r\\n\\t\\t<title>Fizcode | Courses</title>\\r\\n\\t</head>\\r\\n\\t<body>\\r\\n\\t\\t<header>\\r\\n\\t\\t\\t<nav class="centered1440px size20">\\r\\n\\t\\t\\t\\t<ul>\\r\\n\\t\\t\\t\\t\\t<a href="index.html">\\r\\n\\t\\t\\t\\t\\t\\t<li class="left">\\r\\n\\t\\t\\t\\t\\t\\t\\t<div class="logo">\\r\\n\\t\\t\\t\\t\\t\\t\\t\\t<svg xmlns="http://www.w3.org/2000/svg" xmlns:xlink="http://www.w3.org/1999/xlink" preserveAspectRatio="xMidYMid" width="1341" height="512" viewBox="0 0 1341 512">\\r\\n\\t\\t\\t\\t\\t\\t\\t\\t  <path d="M1267.356,268.471 C1263.594,276.185 1256.697,283.136 1246.664,289.319 C1236.632,295.505 1222.837,300.890 1205.280,305.476 C1187.724,310.063 1165.151,313.747 1137.561,316.525 C1137.421,318.056 1137.352,319.548 1137.352,321.008 C1137.352,322.467 1137.352,323.962 1137.352,325.490 C1137.352,344.116 1141.428,358.325 1149.579,368.124 C1157.731,377.922 1170.026,382.822 1186.470,382.822 C1193.158,382.822 1199.115,382.128 1204.340,380.737 C1209.565,379.349 1214.232,377.646 1218.344,375.629 C1222.452,373.616 1226.077,371.391 1229.212,368.958 C1232.347,366.528 1235.237,364.303 1237.886,362.286 C1240.531,360.273 1242.971,358.570 1245.201,357.179 C1247.429,355.791 1249.659,355.094 1251.890,355.094 C1254.398,355.094 1256.697,356.276 1258.787,358.638 L1267.983,370.104 C1260.877,377.473 1253.944,383.760 1247.187,388.972 C1240.427,394.184 1233.497,398.529 1226.391,402.002 C1219.284,405.477 1211.864,408.015 1204.131,409.611 C1196.398,411.207 1188.070,412.009 1179.154,412.009 C1167.032,412.009 1156.163,409.992 1146.549,405.963 C1136.934,401.933 1128.783,396.200 1122.095,388.763 C1115.406,381.330 1110.250,372.329 1106.628,361.765 C1103.003,351.205 1101.194,339.390 1101.194,326.324 C1101.194,315.483 1102.343,304.678 1104.642,293.906 C1106.941,283.136 1110.286,272.885 1114.675,263.155 C1119.064,253.428 1124.426,244.392 1130.769,236.053 C1137.107,227.714 1144.354,220.521 1152.506,214.475 C1160.657,208.429 1169.644,203.670 1179.468,200.194 C1189.291,196.722 1199.846,194.983 1211.133,194.983 C1221.861,194.983 1231.126,196.514 1238.931,199.569 C1246.733,202.628 1253.144,206.520 1258.160,211.244 C1263.176,215.970 1266.902,221.182 1269.342,226.880 C1271.778,232.580 1273.000,238.001 1273.000,243.141 C1273.000,252.314 1271.119,260.757 1267.356,268.471 ZM1238.095,236.782 C1236.978,234.072 1235.202,231.606 1232.765,229.381 C1230.326,227.160 1227.155,225.316 1223.255,223.857 C1219.353,222.397 1214.614,221.668 1209.043,221.668 C1200.264,221.668 1192.181,223.476 1184.798,227.088 C1177.410,230.704 1170.862,235.672 1165.151,241.994 C1159.436,248.320 1154.560,255.754 1150.520,264.302 C1146.477,272.849 1143.342,282.058 1141.114,291.925 C1162.571,289.286 1179.781,286.264 1192.740,282.856 C1205.699,279.452 1215.659,275.768 1222.628,271.807 C1229.594,267.846 1234.192,263.572 1236.423,258.985 C1238.650,254.399 1239.767,249.604 1239.767,244.600 C1239.767,242.099 1239.209,239.493 1238.095,236.782 ZM1024.075,409.090 C1019.196,409.090 1015.888,407.839 1014.147,405.337 C1012.403,402.836 1011.535,399.780 1011.535,396.164 L1015.506,352.175 C1010.209,361.212 1004.428,369.411 998.158,376.776 C991.888,384.144 985.304,390.431 978.407,395.643 C971.509,400.855 964.331,404.888 956.878,407.735 C949.423,410.582 941.862,412.009 934.201,412.009 C916.086,412.009 902.046,405.442 892.085,392.307 C882.122,379.173 877.141,360.097 877.141,335.080 C877.141,323.685 878.324,312.287 880.694,300.890 C883.062,289.495 886.442,278.582 890.831,268.158 C895.221,257.735 900.514,248.040 906.716,239.076 C912.915,230.111 919.812,222.365 927.408,215.830 C935.001,209.299 943.257,204.156 952.176,200.403 C961.091,196.650 970.428,194.774 980.183,194.774 C990.493,194.774 999.935,196.790 1008.504,200.820 C1017.073,204.853 1024.353,210.618 1030.345,218.124 L1044.767,102.001 L1081.344,102.001 L1043.304,409.090 L1024.075,409.090 ZM1007.981,228.339 C1000.594,225.284 993.142,223.753 985.617,223.753 C974.608,223.753 964.680,227.020 955.833,233.551 C946.983,240.086 939.459,248.529 933.260,258.881 C927.059,269.237 922.287,280.807 918.943,293.593 C915.599,306.382 913.927,318.959 913.927,331.327 C913.927,347.869 916.922,360.482 922.914,369.166 C928.904,377.854 937.336,382.196 948.205,382.196 C954.893,382.196 961.614,380.147 968.374,376.046 C975.131,371.948 981.679,366.248 988.021,358.951 C994.360,351.654 1000.281,342.970 1005.787,332.891 C1011.290,322.816 1016.061,311.802 1020.104,299.847 L1027.001,243.975 C1021.704,236.610 1015.365,231.398 1007.981,228.339 ZM820.401,373.649 C810.714,385.463 799.255,394.809 786.018,401.689 C772.779,408.569 758.566,412.009 743.380,412.009 C731.813,412.009 721.225,410.028 711.611,406.067 C701.997,402.106 693.705,396.373 686.739,388.868 C679.770,381.362 674.335,372.189 670.436,361.348 C666.533,350.507 664.584,338.139 664.584,324.239 C664.584,306.450 667.369,289.703 672.944,273.996 C678.516,258.292 686.144,244.532 695.831,232.717 C705.514,220.906 716.941,211.592 730.108,204.781 C743.276,197.973 757.521,194.566 772.851,194.566 C784.415,194.566 795.006,196.546 804.620,200.507 C814.235,204.468 822.523,210.201 829.492,217.707 C836.458,225.212 841.893,234.421 845.795,245.330 C849.695,256.243 851.647,268.575 851.647,282.335 C851.647,299.987 848.858,316.666 843.287,332.370 C837.712,348.077 830.084,361.837 820.401,373.649 ZM802.739,238.555 C795.074,228.688 783.997,223.753 769.507,223.753 C759.193,223.753 749.892,226.499 741.604,231.987 C733.312,237.480 726.242,244.845 720.389,254.086 C714.537,263.331 710.007,273.996 706.804,286.088 C703.597,298.179 701.997,310.828 701.997,324.031 C701.997,343.491 705.791,358.189 713.388,368.124 C720.980,378.062 732.094,383.030 746.725,383.030 C756.894,383.030 766.162,380.251 774.523,374.691 C782.883,369.134 789.990,361.733 795.842,352.488 C801.694,343.247 806.220,332.578 809.427,320.487 C812.631,308.395 814.235,295.749 814.235,282.543 C814.235,263.087 810.401,248.425 802.739,238.555 ZM635.323,240.639 C634.069,241.336 632.674,241.682 631.143,241.682 C629.190,241.682 627.276,240.815 625.395,239.076 C623.514,237.339 621.074,235.395 618.080,233.238 C615.082,231.085 611.319,229.140 606.793,227.401 C602.263,225.665 596.447,224.795 589.341,224.795 C579.726,224.795 570.634,227.401 562.065,232.613 C553.496,237.825 546.004,244.949 539.596,253.982 C533.186,263.018 528.134,273.719 524.443,286.088 C520.750,298.460 518.904,311.730 518.904,325.907 C518.904,334.526 519.878,342.344 521.831,349.361 C523.780,356.381 526.706,362.358 530.609,367.290 C534.508,372.225 539.283,376.046 544.926,378.756 C550.569,381.467 557.153,382.822 564.678,382.822 C570.948,382.822 576.519,382.164 581.398,380.841 C586.274,379.522 590.595,377.890 594.357,375.942 C598.119,373.997 601.427,371.877 604.285,369.583 C607.139,367.290 609.719,365.173 612.018,363.225 C614.317,361.280 616.408,359.648 618.289,358.325 C620.170,357.006 622.083,356.345 624.036,356.345 C626.822,356.345 629.190,357.527 631.143,359.889 L640.339,371.147 C633.092,379.069 626.231,385.672 619.752,390.952 C613.272,396.236 606.757,400.438 600.209,403.565 C593.658,406.692 586.865,408.881 579.831,410.132 C572.793,411.383 565.233,412.009 557.153,412.009 C544.890,412.009 534.058,409.924 524.652,405.754 C515.247,401.585 507.373,395.715 501.034,388.138 C494.692,380.564 489.885,371.460 486.612,360.827 C483.337,350.195 481.701,338.487 481.701,325.699 C481.701,308.603 484.382,292.205 489.748,276.498 C495.110,260.793 502.602,246.894 512.216,234.802 C521.831,222.710 533.254,213.052 546.494,205.823 C559.730,198.598 574.292,194.983 590.177,194.983 C604.109,194.983 615.813,197.452 625.290,202.383 C634.764,207.319 643.056,214.511 650.163,223.961 L638.458,237.929 C637.622,239.043 636.577,239.945 635.323,240.639 ZM461.851,221.355 C460.597,223.788 459.202,225.977 457.671,227.922 L335.609,380.111 L440.114,380.111 L436.770,409.090 L287.537,409.090 L289.418,393.663 C289.695,391.858 290.427,389.737 291.612,387.304 C292.795,384.874 294.225,382.545 295.897,380.320 L418.586,227.088 L315.753,227.088 L319.306,197.901 L466.031,197.901 L464.150,213.746 C463.869,216.387 463.105,218.925 461.851,221.355 ZM202.052,409.090 L227.551,197.901 L264.128,197.901 L238.629,409.090 L202.052,409.090 ZM196.099,132.963 C194.496,133.449 192.442,133.690 189.933,133.690 C188.679,133.690 187.321,133.690 185.858,133.690 C184.395,133.690 182.827,133.690 181.155,133.690 C175.162,133.690 169.624,134.556 164.539,136.289 C159.451,138.022 154.957,140.827 151.058,144.707 C147.155,148.586 143.879,153.645 141.234,159.880 C138.586,166.115 136.704,173.737 135.591,182.741 L133.083,202.071 L185.962,202.071 L182.409,228.756 L130.993,228.756 L109.883,402.210 L100.268,445.365 C97.897,455.789 91.490,461.001 81.039,461.001 L66.409,461.001 L94.625,229.381 L73.724,226.671 C71.353,225.977 69.472,225.003 68.081,223.753 C66.686,222.502 65.991,220.697 65.991,218.332 L67.663,202.071 L97.969,202.071 L100.477,181.640 C102.009,169.548 105.040,158.811 109.569,149.430 C114.096,140.048 119.811,132.126 126.708,125.663 C133.605,119.201 141.476,114.301 150.326,110.966 C159.173,107.630 168.683,105.962 178.856,105.962 C187.494,105.962 195.368,107.389 202.474,110.236 L198.921,129.331 C198.640,131.270 197.699,132.481 196.099,132.963 Z" class="LLG-1"/>\\r\\n\\t\\t\\t\\t\\t\\t\\t\\t  <g>\\r\\n\\t\\t\\t\\t\\t\\t\\t\\t    <ellipse cx="253.297" cy="143.703" rx="19.891" ry="20.297" class="LLG-2"/>\\r\\n\\t\\t\\t\\t\\t\\t\\t\\t    <ellipse cx="295.11" cy="106.25" rx="19.891" ry="20.281" class="LLG-2"/>\\r\\n\\t\\t\\t\\t\\t\\t\\t\\t    <ellipse cx="236.453" cy="82.828" rx="23.453" ry="23.922" class="LLG-2"/>\\r\\n\\t\\t\\t\\t\\t\\t\\t\\t    <g>\\r\\n\\t\\t\\t\\t\\t\\t\\t\\t      <path d="M275.410,38.217 L275.410,38.217 C276.112,37.872 277.052,38.220 277.508,38.994 L279.163,41.796 C279.619,42.570 279.420,43.477 278.718,43.821 L278.718,43.821 C278.016,44.166 277.077,43.818 276.620,43.044 L274.966,40.242 C274.509,39.468 274.708,38.562 275.410,38.217 Z" class="LLG-1"/>\\r\\n\\t\\t\\t\\t\\t\\t\\t\\t      <path d="M269.503,44.207 L269.503,44.207 C269.927,43.441 270.835,43.197 271.532,43.661 L274.052,45.341 C274.748,45.806 274.969,46.802 274.544,47.568 L274.544,47.568 C274.120,48.334 273.212,48.578 272.516,48.114 L269.996,46.433 C269.300,45.969 269.079,44.972 269.503,44.207 Z" class="LLG-1"/>\\r\\n\\t\\t\\t\\t\\t\\t\\t\\t      <path d="M267.143,53.051 L267.143,53.051 C267.162,52.156 267.838,51.445 268.653,51.465 L271.604,51.534 C272.418,51.553 273.063,52.294 273.044,53.189 L273.044,53.189 C273.025,54.084 272.349,54.794 271.534,54.775 L268.583,54.706 C267.768,54.687 267.123,53.946 267.143,53.051 Z" class="LLG-1"/>\\r\\n\\t\\t\\t\\t\\t\\t\\t\\t      <path d="M269.325,61.995 L269.325,61.995 C268.987,61.279 269.329,60.321 270.087,59.855 L272.835,58.168 C273.593,57.702 274.482,57.905 274.820,58.621 L274.820,58.621 C275.158,59.337 274.817,60.295 274.058,60.761 L271.311,62.448 C270.552,62.913 269.663,62.711 269.325,61.995 Z" class="LLG-1"/>\\r\\n\\t\\t\\t\\t\\t\\t\\t\\t      <path d="M275.198,68.019 L275.198,68.019 C274.448,67.587 274.208,66.661 274.663,65.951 L276.311,63.380 C276.766,62.670 277.743,62.445 278.494,62.878 L278.494,62.878 C279.245,63.310 279.484,64.236 279.029,64.946 L277.381,67.517 C276.926,68.227 275.949,68.452 275.198,68.019 Z" class="LLG-1"/>\\r\\n\\t\\t\\t\\t\\t\\t\\t\\t      <path d="M283.870,70.427 L283.870,70.427 C282.992,70.407 282.296,69.718 282.315,68.887 L282.382,65.877 C282.401,65.046 283.128,64.388 284.005,64.408 L284.005,64.408 C284.883,64.428 285.579,65.117 285.561,65.948 L285.493,68.958 C285.474,69.789 284.747,70.447 283.870,70.427 Z" class="LLG-1"/>\\r\\n\\t\\t\\t\\t\\t\\t\\t\\t      <path d="M292.265,68.397 L292.265,68.397 C291.550,68.740 290.594,68.394 290.128,67.625 L288.444,64.839 C287.979,64.070 288.182,63.168 288.896,62.826 L288.896,62.826 C289.611,62.483 290.568,62.829 291.033,63.598 L292.717,66.384 C293.182,67.153 292.980,68.055 292.265,68.397 Z" class="LLG-1"/>\\r\\n\\t\\t\\t\\t\\t\\t\\t\\t      <path d="M298.279,62.442 L298.279,62.442 C297.848,63.204 296.923,63.447 296.214,62.985 L293.648,61.314 C292.939,60.853 292.715,59.862 293.147,59.101 L293.147,59.101 C293.578,58.340 294.503,58.097 295.212,58.558 L297.778,60.229 C298.487,60.690 298.711,61.681 298.279,62.442 Z" class="LLG-1"/>\\r\\n\\t\\t\\t\\t\\t\\t\\t\\t      <path d="M300.683,53.650 L300.683,53.650 C300.664,54.540 299.975,55.246 299.146,55.227 L296.141,55.158 C295.311,55.139 294.655,54.402 294.674,53.513 L294.674,53.513 C294.694,52.623 295.382,51.917 296.212,51.936 L299.217,52.005 C300.046,52.024 300.703,52.760 300.683,53.650 Z" class="LLG-1"/>\\r\\n\\t\\t\\t\\t\\t\\t\\t\\t      <path d="M298.240,44.425 L298.240,44.425 C298.582,45.161 298.273,46.164 297.552,46.666 L294.938,48.483 C294.216,48.985 293.354,48.795 293.012,48.058 L293.012,48.058 C292.671,47.322 292.979,46.319 293.701,45.817 L296.315,44.000 C297.037,43.498 297.899,43.688 298.240,44.425 Z" class="LLG-1"/>\\r\\n\\t\\t\\t\\t\\t\\t\\t\\t      <path d="M292.443,38.301 L292.443,38.301 C293.177,38.733 293.428,39.689 293.005,40.438 L291.471,43.147 C291.047,43.896 290.109,44.152 289.375,43.720 L289.375,43.720 C288.642,43.288 288.390,42.331 288.814,41.583 L290.348,38.873 C290.771,38.125 291.709,37.869 292.443,38.301 Z" class="LLG-1"/>\\r\\n\\t\\t\\t\\t\\t\\t\\t\\t      <path d="M284.136,36.000 L284.136,36.000 C283.285,36.019 282.610,36.704 282.628,37.529 L282.694,40.516 C282.712,41.341 283.416,41.994 284.267,41.974 L284.267,41.974 C285.118,41.955 285.794,41.270 285.776,40.445 L285.710,37.458 C285.691,36.633 284.987,35.980 284.136,36.000 Z" class="LLG-1"/>\\r\\n\\t\\t\\t\\t\\t\\t\\t\\t    </g>\\r\\n\\t\\t\\t\\t\\t\\t\\t\\t  </g>\\r\\n\\t\\t\\t\\t\\t\\t\\t\\t</svg>\\r\\n\\t\\t\\t\\t\\t\\t\\t\\t<svg xmlns="http://www.w3.org/2000/svg" xmlns:xlink="http://www.w3.org/1999/xlink" preserveAspectRatio="xMidYMid" width="32" height="32" viewBox="0 0 512 512">\\r\\n\\t\\t\\t\\t\\t\\t\\t\\t  <g>\\r\\n\\t\\t\\t\\t\\t\\t\\t\\t    <path d="M217.829,338.288 C256.493,338.288 287.836,370.235 287.836,409.644 C287.836,449.053 256.493,481.000 217.829,481.000 C179.165,481.000 147.822,449.053 147.822,409.644 C147.822,370.235 179.165,338.288 217.829,338.288 Z" class="SLG-1"/>\\r\\n\\t\\t\\t\\t\\t\\t\\t\\t    <path d="M364.993,206.671 C403.657,206.671 435.000,238.594 435.000,277.973 C435.000,317.351 403.657,349.274 364.993,349.274 C326.329,349.274 294.986,317.351 294.986,277.973 C294.986,238.594 326.329,206.671 364.993,206.671 Z" class="SLG-1"/>\\r\\n\\t\\t\\t\\t\\t\\t\\t\\t    <path d="M158.546,111.530 C204.135,111.530 241.092,149.183 241.092,195.630 C241.092,242.077 204.135,279.730 158.546,279.730 C112.957,279.730 76.000,242.077 76.000,195.630 C76.000,149.183 112.957,111.530 158.546,111.530 Z" class="SLG-1"/>\\r\\n\\t\\t\\t\\t\\t\\t\\t\\t    <g>\\r\\n\\t\\t\\t\\t\\t\\t\\t\\t      <path d="M295.659,38.794 L295.659,38.794 C298.130,37.582 301.437,38.806 303.044,41.526 L308.866,51.377 C310.474,54.097 309.774,57.285 307.303,58.496 L307.303,58.496 C304.832,59.708 301.526,58.485 299.918,55.764 L294.097,45.913 C292.489,43.193 293.189,40.005 295.659,38.794 Z" class="SLG-1"/>\\r\\n\\t\\t\\t\\t\\t\\t\\t\\t      <path d="M274.870,59.852 L274.870,59.852 C276.362,57.160 279.558,56.301 282.008,57.932 L290.879,63.841 C293.329,65.473 294.105,68.978 292.612,71.669 L292.612,71.669 C291.120,74.361 287.924,75.220 285.474,73.589 L276.603,67.680 C274.153,66.048 273.377,62.543 274.870,59.852 Z" class="SLG-1"/>\\r\\n\\t\\t\\t\\t\\t\\t\\t\\t      <path d="M266.561,90.944 L266.561,90.944 C266.628,87.797 269.008,85.301 271.876,85.368 L282.261,85.611 C285.129,85.678 287.399,88.284 287.331,91.431 L287.331,91.431 C287.263,94.578 284.884,97.074 282.016,97.007 L271.631,96.764 C268.763,96.697 266.493,94.091 266.561,90.944 Z" class="SLG-1"/>\\r\\n\\t\\t\\t\\t\\t\\t\\t\\t      <path d="M274.243,122.388 L274.243,122.388 C273.054,119.870 274.254,116.502 276.925,114.865 L286.594,108.934 C289.265,107.296 292.393,108.009 293.583,110.526 L293.583,110.526 C294.772,113.043 293.571,116.411 290.901,118.049 L281.231,123.980 C278.561,125.618 275.432,124.905 274.243,122.388 Z" class="SLG-1"/>\\r\\n\\t\\t\\t\\t\\t\\t\\t\\t      <path d="M294.913,143.567 L294.913,143.567 C292.271,142.047 291.428,138.791 293.029,136.295 L298.829,127.258 C300.431,124.762 303.871,123.972 306.513,125.492 L306.513,125.492 C309.155,127.013 309.999,130.269 308.397,132.764 L302.597,141.802 C300.996,144.297 297.555,145.088 294.913,143.567 Z" class="SLG-1"/>\\r\\n\\t\\t\\t\\t\\t\\t\\t\\t      <path d="M325.433,152.032 L325.433,152.032 C322.344,151.963 319.894,149.539 319.960,146.617 L320.199,136.037 C320.264,133.116 322.822,130.803 325.911,130.872 L325.911,130.872 C329.000,130.941 331.451,133.366 331.385,136.287 L331.146,146.867 C331.080,149.789 328.522,152.101 325.433,152.032 Z" class="SLG-1"/>\\r\\n\\t\\t\\t\\t\\t\\t\\t\\t      <path d="M354.981,144.896 L354.981,144.896 C352.465,146.101 349.099,144.885 347.462,142.180 L341.534,132.387 C339.897,129.682 340.610,126.514 343.125,125.309 L343.125,125.309 C345.641,124.105 349.008,125.321 350.645,128.025 L356.573,137.819 C358.209,140.523 357.497,143.692 354.981,144.896 Z" class="SLG-1"/>\\r\\n\\t\\t\\t\\t\\t\\t\\t\\t      <path d="M376.150,123.962 L376.150,123.962 C374.630,126.638 371.376,127.492 368.882,125.870 L359.849,119.996 C357.354,118.374 356.564,114.890 358.084,112.214 L358.084,112.214 C359.604,109.538 362.858,108.683 365.352,110.305 L374.385,116.179 C376.880,117.802 377.670,121.286 376.150,123.962 Z" class="SLG-1"/>\\r\\n\\t\\t\\t\\t\\t\\t\\t\\t      <path d="M384.611,93.052 L384.611,93.052 C384.541,96.180 382.118,98.662 379.198,98.595 L368.624,98.353 C365.704,98.286 363.392,95.696 363.461,92.568 L363.461,92.568 C363.530,89.439 365.953,86.957 368.873,87.024 L379.448,87.266 C382.368,87.333 384.679,89.923 384.611,93.052 Z" class="SLG-1"/>\\r\\n\\t\\t\\t\\t\\t\\t\\t\\t      <path d="M376.012,60.618 L376.012,60.618 C377.214,63.206 376.129,66.734 373.588,68.498 L364.388,74.885 C361.848,76.649 358.814,75.981 357.612,73.393 L357.612,73.393 C356.409,70.805 357.495,67.277 360.035,65.513 L369.235,59.125 C371.776,57.361 374.810,58.029 376.012,60.618 Z" class="SLG-1"/>\\r\\n\\t\\t\\t\\t\\t\\t\\t\\t      <path d="M355.608,39.088 L355.608,39.088 C358.191,40.607 359.075,43.971 357.585,46.601 L352.186,56.127 C350.695,58.758 347.393,59.659 344.811,58.141 L344.811,58.141 C342.229,56.622 341.344,53.258 342.835,50.627 L348.233,41.101 C349.724,38.470 353.026,37.569 355.608,39.088 Z" class="SLG-1"/>\\r\\n\\t\\t\\t\\t\\t\\t\\t\\t      <path d="M326.370,30.999 L326.370,30.999 C323.375,31.067 320.998,33.474 321.062,36.374 L321.294,46.876 C321.358,49.776 323.838,52.071 326.833,52.003 L326.833,52.003 C329.829,51.934 332.205,49.528 332.141,46.628 L331.909,36.126 C331.845,33.226 329.365,30.930 326.370,30.999 Z" class="SLG-1"/>\\r\\n\\t\\t\\t\\t\\t\\t\\t\\t    </g>\\r\\n\\t\\t\\t\\t\\t\\t\\t\\t  </g>\\r\\n\\t\\t\\t\\t\\t\\t\\t\\t</svg>\\r\\n\\t\\t\\t\\t\\t\\t\\t</div>\\r\\n\\t\\t\\t\\t\\t\\t</li>\\r\\n\\t\\t\\t\\t\\t</a>\\r\\n\\t\\t\\t\\t\\t<a href="#signup">\\r\\n\\t\\t\\t\\t\\t\\t<li class="right callToAction OrangeButton">Registrarse</li>\\r\\n\\t\\t\\t\\t\\t</a>\\r\\n\\t\\t\\t\\t\\t<a href="#login">\\r\\n\\t\\t\\t\\t\\t\\t<li class="right softUnderline size18">Iniciar Sesi\\xc3\\xb3n</li>\\r\\n\\t\\t\\t\\t\\t</a>\\r\\n\\t\\t\\t\\t</ul>\\r\\n\\t\\t\\t</nav>\\r\\n\\t\\t</header>\\r\\n\\t\\t<main>\\r\\n\\t\\t\\t<span class="space50 block"></span>\\r\\n\\t\\t\\t<section id="second">\\r\\n\\t\\t\\t\\t<article class="centered1440px">\\r\\n\\t\\t\\t\\t\\t<span class="space20 block"></span>\\r\\n\\t\\t\\t\\t\\t<h1 class="size30">De Fizcode, Para ti!</h1>\\r\\n\\t\\t\\t\\t\\t<h3 class="size26">Nuestros cursos:</h3>\\r\\n\\t\\t\\t\\t\\t<span class="space20 block"></span>\\r\\n\\t\\t\\t\\t\\t<ul class="courses">\\r\\n\\t\\t\\t\\t\\t\\t\', escape=False)'
p97
sI70
S'for row in rows:'
p98
sI71
S'    response.write(\'\\r\\n\\t\\t\\t\\t\\t\\t<li class="courseCard">\\r\\n\\t\\t\\t\\t\\t\\t\\t\\t<h3>\', escape=False)'
p99
sI72
S'    rows.title'
p100
sI73
S'    response.write(\'</h3>\\r\\n\\t\\t\\t\\t\\t\\t\\t\\t<img src="">\\r\\n\\t\\t\\t\\t\\t\\t\\t\\t<p>\', escape=False)'
p101
sI74
S'    rows.body'
p102
sI75
S"    response.write('</p>\\r\\n\\t\\t\\t\\t\\t\\t</li>\\r\\n\\t\\t\\t\\t\\t\\t', escape=False)"
p103
sI76
S'    pass'
p104
sI77
S'response.write(\'\\r\\n\\t\\t\\t\\t\\t</ul>\\r\\n\\t\\t\\t\\t\\t<span class="blankSpace"></span>\\r\\n\\t\\t\\t\\t</article>\\r\\n\\t\\t\\t</section>\\r\\n\\t\\t</main>\\r\\n\\t\\t<footer>\\r\\n\\t\\t\\t<div class="centered1440px">\\r\\n\\t\\t\\t\\t<div class="clearFix">\\r\\n\\t\\t\\t\\t\\t<ul class="size14">\\r\\n\\t\\t\\t\\t\\t\\t<a href="">\\r\\n\\t\\t\\t\\t\\t\\t\\t<li class="strong">\\r\\n\\t\\t\\t\\t\\t\\t\\t\\tFizcode\\r\\n\\t\\t\\t\\t\\t\\t\\t</li>\\r\\n\\t\\t\\t\\t\\t\\t</a>\\r\\n\\t\\t\\t\\t\\t\\t<a href="">\\r\\n\\t\\t\\t\\t\\t\\t\\t<li>\\r\\n\\t\\t\\t\\t\\t\\t\\t\\t&copy; Copyright 2015\\r\\n\\t\\t\\t\\t\\t\\t\\t</li>\\r\\n\\t\\t\\t\\t\\t\\t</a>\\r\\n\\t\\t\\t\\t\\t\\t<a href="">\\r\\n\\t\\t\\t\\t\\t\\t\\t<li>\\r\\n\\t\\t\\t\\t\\t\\t\\t\\tAviso Legal\\r\\n\\t\\t\\t\\t\\t\\t\\t</li>\\r\\n\\t\\t\\t\\t\\t\\t</a>\\r\\n\\t\\t\\t\\t\\t\\t<a href="">\\r\\n\\t\\t\\t\\t\\t\\t\\t<li>\\r\\n\\t\\t\\t\\t\\t\\t\\t\\tContacto\\r\\n\\t\\t\\t\\t\\t\\t\\t</li>\\r\\n\\t\\t\\t\\t\\t\\t</a>\\r\\n\\t\\t\\t\\t\\t\\t<a href="">\\r\\n\\t\\t\\t\\t\\t\\t\\t<li>\\r\\n\\t\\t\\t\\t\\t\\t\\t\\tBlog\\r\\n\\t\\t\\t\\t\\t\\t\\t</li>\\r\\n\\t\\t\\t\\t\\t\\t</a>\\r\\n\\t\\t\\t\\t\\t</ul>\\r\\n\\t\\t\\t\\t</div>\\r\\n\\t\\t\\t</div>\\r\\n\\t\\t</footer>\\r\\n\\t</body>\\r\\n</html>\\r\\n\', escape=False)'
p105
sI78
S"response.write('\\r\\n        ', escape=False)"
p106
sI79
S"response.write('\\r\\n      </div>\\r\\n  </body>\\r\\n</html>\\r\\n', escape=False)"
p107
sI63
S'response.write(\'" media="screen and (max-width:700px)">\\r\\n\\t\\t<link rel="stylesheet" href="\', escape=False)'
p108
ssg83
S'()'
p109
sg85
S'<module>'
p110
sasS'pyver'
p111
S'Python 2.7.9: C:\\Users\\maxse_000\\Downloads\\Installers_Setups\\web2py_win\\web2py\\web2py.exe (prefix: C:\\Python27)'
p112
sS'session'
p113
g57
(S's\x1a\x00\x00\x00<div><table></table></div>'
tRp114
sS'etype'
p115
S"<type 'exceptions.AttributeError'>"
p116
sS'date'
p117
S'Mon Aug 03 21:54:34 2015'
p118
sS'response'
p119
g57
(S's\x8aB\x00\x00<div><table><tr><td style="font-weight:bold;vertical-align:top;">body</td><td style="vertical-align:top;">:</td><td><div>&lt;cStringIO.StringO object at 0x08CE9AC0&gt;</div></td></tr><tr><td style="font-weight:bold;vertical-align:top;">cookies</td><td style="vertical-align:top;">:</td><td><div><table><tr><td style="font-weight:bold;vertical-align:top;">session_id_fizcode</td><td style="vertical-align:top;">:</td><td><div>127.0.0.1-32b29c49-31b0-4d0f-a74c-841495cab1f2<table><tr><td style="font-weight:bold;vertical-align:top;">comment</td><td style="vertical-align:top;">:</td><td><div></div></td></tr><tr><td style="font-weight:bold;vertical-align:top;">domain</td><td style="vertical-align:top;">:</td><td><div></div></td></tr><tr><td style="font-weight:bold;vertical-align:top;">expires</td><td style="vertical-align:top;">:</td><td><div></div></td></tr><tr><td style="font-weight:bold;vertical-align:top;">httponly</td><td style="vertical-align:top;">:</td><td><div></div></td></tr><tr><td style="font-weight:bold;vertical-align:top;">max-age</td><td style="vertical-align:top;">:</td><td><div></div></td></tr><tr><td style="font-weight:bold;vertical-align:top;">path</td><td style="vertical-align:top;">:</td><td><div>/</div></td></tr><tr><td style="font-weight:bold;vertical-align:top;">secure</td><td style="vertical-align:top;">:</td><td><div></div></td></tr><tr><td style="font-weight:bold;vertical-align:top;">version</td><td style="vertical-align:top;">:</td><td><div></div></td></tr></table></div></td></tr></table></div></td></tr><tr><td style="font-weight:bold;vertical-align:top;">delimiters</td><td style="vertical-align:top;">:</td><td><div><table><tr><td><div>{{</div></td></tr><tr><td><div>}}</div></td></tr></table></div></td></tr><tr><td style="font-weight:bold;vertical-align:top;">files</td><td style="vertical-align:top;">:</td><td><div><table><tr><td><div>/fizcode/static/js/jquery.js</div></td></tr><tr><td><div>/fizcode/static/css/calendar.css</div></td></tr><tr><td><div>/fizcode/static/js/calendar.js</div></td></tr><tr><td><div>/fizcode/static/js/web2py.js</div></td></tr><tr><td><div>/fizcode/static/style.css</div></td></tr><tr><td><div>/fizcode/static/normalize.css</div></td></tr><tr><td><div>/fizcode/static/style_small.css</div></td></tr><tr><td><div>/fizcode/static/login.css</div></td></tr><tr><td><div>/fizcode/static/login-small.css</div></td></tr><tr><td><div>/fizcode/static/login_large.css</div></td></tr></table></div></td></tr><tr><td style="font-weight:bold;vertical-align:top;">flash</td><td style="vertical-align:top;">:</td><td><div></div></td></tr><tr><td style="font-weight:bold;vertical-align:top;">form_label_separator</td><td style="vertical-align:top;">:</td><td><div></div></td></tr><tr><td style="font-weight:bold;vertical-align:top;">formstyle</td><td style="vertical-align:top;">:</td><td><div>bootstrap3_inline</div></td></tr><tr><td style="font-weight:bold;vertical-align:top;">generic_patterns</td><td style="vertical-align:top;">:</td><td><div><table><tr><td><div>*</div></td></tr></table></div></td></tr><tr><td style="font-weight:bold;vertical-align:top;">google_analytics_id</td><td style="vertical-align:top;">:</td><td><div>None</div></td></tr><tr><td style="font-weight:bold;vertical-align:top;">headers</td><td style="vertical-align:top;">:</td><td><div><table><tr><td style="font-weight:bold;vertical-align:top;">X-Powered-By</td><td style="vertical-align:top;">:</td><td><div>web2py</div></td></tr></table></div></td></tr><tr><td style="font-weight:bold;vertical-align:top;">logo</td><td style="vertical-align:top;">:</td><td><div><a class="navbar-brand" href="http://www.web2py.com/" id="web2py-logo"><b>web<span>2</span>py</b>&trade;&nbsp;</a></div></td></tr><tr><td style="font-weight:bold;vertical-align:top;">menu</td><td style="vertical-align:top;">:</td><td><div><table><tr><td><div><table><tr><td><div>Inicio</div></td></tr><tr><td><div>False</div></td></tr><tr><td><div>/fizcode/default/index</div></td></tr><tr><td><div><table></table></div></td></tr></table></div></td></tr><tr><td><div><table><tr><td><div>Mis Sitios</div></td></tr><tr><td><div>False</div></td></tr><tr><td><div>/admin/default/site</div></td></tr></table></div></td></tr><tr><td><div><table><tr><td><div>Esta Aplicaci\xc3\xb3n</div></td></tr><tr><td><div>False</div></td></tr><tr><td><div>#</div></td></tr><tr><td><div><table><tr><td><div><table><tr><td><div>Design</div></td></tr><tr><td><div>False</div></td></tr><tr><td><div>/admin/default/design/fizcode</div></td></tr></table></div></td></tr><tr><td><div><li class="divider"></li></div></td></tr><tr><td><div><table><tr><td><div>Controlador</div></td></tr><tr><td><div>False</div></td></tr><tr><td><div>/admin/default/edit/fizcode/controllers/default.py</div></td></tr></table></div></td></tr><tr><td><div><table><tr><td><div>Vista</div></td></tr><tr><td><div>False</div></td></tr><tr><td><div>/admin/default/edit/fizcode/views/default/courses.html</div></td></tr></table></div></td></tr><tr><td><div><table><tr><td><div>Modelo BDD</div></td></tr><tr><td><div>False</div></td></tr><tr><td><div>/admin/default/edit/fizcode/models/db.py</div></td></tr></table></div></td></tr><tr><td><div><table><tr><td><div>Modelo "menu"</div></td></tr><tr><td><div>False</div></td></tr><tr><td><div>/admin/default/edit/fizcode/models/menu.py</div></td></tr></table></div></td></tr><tr><td><div><table><tr><td><div>Config.ini</div></td></tr><tr><td><div>False</div></td></tr><tr><td><div>/admin/default/edit/fizcode/private/appconfig.ini</div></td></tr></table></div></td></tr><tr><td><div><table><tr><td><div>Dise\xc3\xb1o de p\xc3\xa1gina</div></td></tr><tr><td><div>False</div></td></tr><tr><td><div>/admin/default/edit/fizcode/views/layout.html</div></td></tr></table></div></td></tr><tr><td><div><table><tr><td><div>Hoja de estilo</div></td></tr><tr><td><div>False</div></td></tr><tr><td><div>/admin/default/edit/fizcode/static/css/web2py-bootstrap3.css</div></td></tr></table></div></td></tr><tr><td><div><table><tr><td><div>Base de datos</div></td></tr><tr><td><div>False</div></td></tr><tr><td><div>/fizcode/appadmin/index</div></td></tr></table></div></td></tr><tr><td><div><table><tr><td><div>Errores</div></td></tr><tr><td><div>False</div></td></tr><tr><td><div>/admin/default/errors/fizcode</div></td></tr></table></div></td></tr><tr><td><div><table><tr><td><div>Acerca de</div></td></tr><tr><td><div>False</div></td></tr><tr><td><div>/admin/default/about/fizcode</div></td></tr></table></div></td></tr></table></div></td></tr></table></div></td></tr><tr><td><div><table><tr><td><div>web2py.com</div></td></tr><tr><td><div>False</div></td></tr><tr><td><div>#</div></td></tr><tr><td><div><table><tr><td><div><table><tr><td><div>Descargas</div></td></tr><tr><td><div>False</div></td></tr><tr><td><div>http://www.web2py.com/examples/default/download</div></td></tr></table></div></td></tr><tr><td><div><table><tr><td><div>Soporte</div></td></tr><tr><td><div>False</div></td></tr><tr><td><div>http://www.web2py.com/examples/default/support</div></td></tr></table></div></td></tr><tr><td><div><table><tr><td><div>Demostraci\xc3\xb3n</div></td></tr><tr><td><div>False</div></td></tr><tr><td><div>http://web2py.com/demo_admin</div></td></tr></table></div></td></tr><tr><td><div><table><tr><td><div>Ejemplos R\xc3\xa1pidos</div></td></tr><tr><td><div>False</div></td></tr><tr><td><div>http://web2py.com/examples/default/examples</div></td></tr></table></div></td></tr><tr><td><div><table><tr><td><div>FAQ</div></td></tr><tr><td><div>False</div></td></tr><tr><td><div>http://web2py.com/AlterEgo</div></td></tr></table></div></td></tr><tr><td><div><table><tr><td><div>V\xc3\xaddeos</div></td></tr><tr><td><div>False</div></td></tr><tr><td><div>http://www.web2py.com/examples/default/videos/</div></td></tr></table></div></td></tr><tr><td><div><table><tr><td><div>Aplicaciones Libres</div></td></tr><tr><td><div>False</div></td></tr><tr><td><div>http://web2py.com/appliances</div></td></tr></table></div></td></tr><tr><td><div><table><tr><td><div>Plugins</div></td></tr><tr><td><div>False</div></td></tr><tr><td><div>http://web2py.com/plugins</div></td></tr></table></div></td></tr><tr><td><div><table><tr><td><div>Recetas</div></td></tr><tr><td><div>False</div></td></tr><tr><td><div>http://web2pyslices.com/</div></td></tr></table></div></td></tr></table></div></td></tr></table></div></td></tr><tr><td><div><table><tr><td><div>Documentaci\xc3\xb3n</div></td></tr><tr><td><div>False</div></td></tr><tr><td><div>#</div></td></tr><tr><td><div><table><tr><td><div><table><tr><td><div>Online book</div></td></tr><tr><td><div>False</div></td></tr><tr><td><div>http://www.web2py.com/book</div></td></tr></table></div></td></tr><tr><td><div><li class="divider"></li></div></td></tr><tr><td><div><table><tr><td><div>Prefacio</div></td></tr><tr><td><div>False</div></td></tr><tr><td><div>http://www.web2py.com/book/default/chapter/00</div></td></tr></table></div></td></tr><tr><td><div><table><tr><td><div>Introducci\xc3\xb3n</div></td></tr><tr><td><div>False</div></td></tr><tr><td><div>http://www.web2py.com/book/default/chapter/01</div></td></tr></table></div></td></tr><tr><td><div><table><tr><td><div>Python</div></td></tr><tr><td><div>False</div></td></tr><tr><td><div>http://www.web2py.com/book/default/chapter/02</div></td></tr></table></div></td></tr><tr><td><div><table><tr><td><div>Resumen</div></td></tr><tr><td><div>False</div></td></tr><tr><td><div>http://www.web2py.com/book/default/chapter/03</div></td></tr></table></div></td></tr><tr><td><div><table><tr><td><div>El N\xc3\xbacleo</div></td></tr><tr><td><div>False</div></td></tr><tr><td><div>http://www.web2py.com/book/default/chapter/04</div></td></tr></table></div></td></tr><tr><td><div><table><tr><td><div>Las Vistas</div></td></tr><tr><td><div>False</div></td></tr><tr><td><div>http://www.web2py.com/book/default/chapter/05</div></td></tr></table></div></td></tr><tr><td><div><table><tr><td><div>Base de datos</div></td></tr><tr><td><div>False</div></td></tr><tr><td><div>http://www.web2py.com/book/default/chapter/06</div></td></tr></table></div></td></tr><tr><td><div><table><tr><td><div>Formularios y validadores</div></td></tr><tr><td><div>False</div></td></tr><tr><td><div>http://www.web2py.com/book/default/chapter/07</div></td></tr></table></div></td></tr><tr><td><div><table><tr><td><div>Correo electr\xc3\xb3nico y SMS</div></td></tr><tr><td><div>False</div></td></tr><tr><td><div>http://www.web2py.com/book/default/chapter/08</div></td></tr></table></div></td></tr><tr><td><div><table><tr><td><div>Control de Acceso</div></td></tr><tr><td><div>False</div></td></tr><tr><td><div>http://www.web2py.com/book/default/chapter/09</div></td></tr></table></div></td></tr><tr><td><div><table><tr><td><div>Servicios</div></td></tr><tr><td><div>False</div></td></tr><tr><td><div>http://www.web2py.com/book/default/chapter/10</div></td></tr></table></div></td></tr><tr><td><div><table><tr><td><div>Recetas AJAX</div></td></tr><tr><td><div>False</div></td></tr><tr><td><div>http://www.web2py.com/book/default/chapter/11</div></td></tr></table></div></td></tr><tr><td><div><table><tr><td><div>Componentes y Plugins</div></td></tr><tr><td><div>False</div></td></tr><tr><td><div>http://www.web2py.com/book/default/chapter/12</div></td></tr></table></div></td></tr><tr><td><div><table><tr><td><div>Recetas de despliegue</div></td></tr><tr><td><div>False</div></td></tr><tr><td><div>http://www.web2py.com/book/default/chapter/13</div></td></tr></table></div></td></tr><tr><td><div><table><tr><td><div>Otras Recetas</div></td></tr><tr><td><div>False</div></td></tr><tr><td><div>http://www.web2py.com/book/default/chapter/14</div></td></tr></table></div></td></tr><tr><td><div><table><tr><td><div>Helping web2py</div></td></tr><tr><td><div>False</div></td></tr><tr><td><div>http://www.web2py.com/book/default/chapter/15</div></td></tr></table></div></td></tr><tr><td><div><table><tr><td><div>Buy web2py\'s book</div></td></tr><tr><td><div>False</div></td></tr><tr><td><div>http://stores.lulu.com/web2py</div></td></tr></table></div></td></tr></table></div></td></tr></table></div></td></tr><tr><td><div><table><tr><td><div>Comunidad</div></td></tr><tr><td><div>False</div></td></tr><tr><td><div>None</div></td></tr><tr><td><div><table><tr><td><div><table><tr><td><div>Grupos</div></td></tr><tr><td><div>False</div></td></tr><tr><td><div>http://www.web2py.com/examples/default/usergroups</div></td></tr></table></div></td></tr><tr><td><div><table><tr><td><div>Twitter</div></td></tr><tr><td><div>False</div></td></tr><tr><td><div>http://twitter.com/web2py</div></td></tr></table></div></td></tr><tr><td><div><table><tr><td><div>Chat en vivo</div></td></tr><tr><td><div>False</div></td></tr><tr><td><div>http://webchat.freenode.net/?channels=web2py</div></td></tr></table></div></td></tr></table></div></td></tr></table></div></td></tr></table></div></td></tr><tr><td style="font-weight:bold;vertical-align:top;">meta</td><td style="vertical-align:top;">:</td><td><div><table><tr><td style="font-weight:bold;vertical-align:top;">author</td><td style="vertical-align:top;">:</td><td><div>Your Name &lt;you@example.com&gt;</div></td></tr><tr><td style="font-weight:bold;vertical-align:top;">description</td><td style="vertical-align:top;">:</td><td><div>a cool new app</div></td></tr><tr><td style="font-weight:bold;vertical-align:top;">generator</td><td style="vertical-align:top;">:</td><td><div>Web2py Web Framework</div></td></tr><tr><td style="font-weight:bold;vertical-align:top;">keywords</td><td style="vertical-align:top;">:</td><td><div>web2py, python, framework</div></td></tr></table></div></td></tr><tr><td style="font-weight:bold;vertical-align:top;">models_to_run</td><td style="vertical-align:top;">:</td><td><div><table><tr><td><div>^\\w+\\.py$</div></td></tr><tr><td><div>^default/\\w+\\.py$</div></td></tr><tr><td><div>^default/courses/\\w+\\.py$</div></td></tr></table></div></td></tr><tr><td style="font-weight:bold;vertical-align:top;">postprocessing</td><td style="vertical-align:top;">:</td><td><div><table></table></div></td></tr><tr><td style="font-weight:bold;vertical-align:top;">session_client</td><td style="vertical-align:top;">:</td><td><div>127.0.0.1</div></td></tr><tr><td style="font-weight:bold;vertical-align:top;">session_cookie_compression_level</td><td style="vertical-align:top;">:</td><td><div>None</div></td></tr><tr><td style="font-weight:bold;vertical-align:top;">session_cookie_expires</td><td style="vertical-align:top;">:</td><td><div>None</div></td></tr><tr><td style="font-weight:bold;vertical-align:top;">session_cookie_key</td><td style="vertical-align:top;">:</td><td><div>None</div></td></tr><tr><td style="font-weight:bold;vertical-align:top;">session_data_name</td><td style="vertical-align:top;">:</td><td><div>session_data_fizcode</div></td></tr><tr><td style="font-weight:bold;vertical-align:top;">session_file</td><td style="vertical-align:top;">:</td><td><div>&lt;open file &#x27;C:\\\\Users\\\\maxse_000\\\\Downloads\\\\Installers_Setups\\\\web2py_win\\\\web2py\\\\applications\\\\fizcode\\\\sessions\\\\08b\\\\017\\\\127.0.0.1-32b29c49-31b0-4d0f-a74c-841495cab1f2&#x27;, mode &#x27;rb+&#x27; at 0x07653C80&gt;</div></td></tr><tr><td style="font-weight:bold;vertical-align:top;">session_filename</td><td style="vertical-align:top;">:</td><td><div>C:\\Users\\maxse_000\\Downloads\\Installers_Setups\\web2py_win\\web2py\\applications\\fizcode\\sessions\\127.0.0.1-32b29c49-31b0-4d0f-a74c-841495cab1f2</div></td></tr><tr><td style="font-weight:bold;vertical-align:top;">session_hash</td><td style="vertical-align:top;">:</td><td><div>6ae7169cf4ab6ba22804419ca899decd</div></td></tr><tr><td style="font-weight:bold;vertical-align:top;">session_id</td><td style="vertical-align:top;">:</td><td><div>127.0.0.1-32b29c49-31b0-4d0f-a74c-841495cab1f2</div></td></tr><tr><td style="font-weight:bold;vertical-align:top;">session_id_name</td><td style="vertical-align:top;">:</td><td><div>session_id_fizcode</div></td></tr><tr><td style="font-weight:bold;vertical-align:top;">session_locked</td><td style="vertical-align:top;">:</td><td><div>True</div></td></tr><tr><td style="font-weight:bold;vertical-align:top;">session_masterapp</td><td style="vertical-align:top;">:</td><td><div>fizcode</div></td></tr><tr><td style="font-weight:bold;vertical-align:top;">session_new</td><td style="vertical-align:top;">:</td><td><div>False</div></td></tr><tr><td style="font-weight:bold;vertical-align:top;">session_storage_type</td><td style="vertical-align:top;">:</td><td><div>file</div></td></tr><tr><td style="font-weight:bold;vertical-align:top;">status</td><td style="vertical-align:top;">:</td><td><div>200</div></td></tr><tr><td style="font-weight:bold;vertical-align:top;">subtitle</td><td style="vertical-align:top;">:</td><td><div></div></td></tr><tr><td style="font-weight:bold;vertical-align:top;">title</td><td style="vertical-align:top;">:</td><td><div>Fizcode</div></td></tr><tr><td style="font-weight:bold;vertical-align:top;">view</td><td style="vertical-align:top;">:</td><td><div>default/courses.html</div></td></tr></table></div>'
tRp120
sS'locals'
p121
(dp122
S'Service'
p123
S"<class 'gluon.tools.Service'>"
p124
sS'OBJECT'
p125
S"<class 'gluon.html.OBJECT'>"
p126
sS'SQLDB'
p127
S"<class 'pydal.base.DAL'>"
p128
sg113
S"<Storage {'_formkey[new_courses/create]': ['d368...cff01', 'c8da06b9-f67a-4ba5-a462-e474c9a25376']}>"
p129
sS'LINK'
p130
S"<class 'gluon.html.LINK'>"
p131
sS'BR'
p132
S"<class 'gluon.html.BR'>"
p133
sS'local_import'
p134
S'<function <lambda>>'
p135
sS'OPTGROUP'
p136
S"<class 'gluon.html.OPTGROUP'>"
p137
sS'__package__'
p138
S'None'
p139
sS'row'
p140
S"<Row {'body': 'hola', 'title': 'hola', 'id': 1L,...on': datetime.datetime(2015, 8, 18, 20, 19, 22)}>"
p141
sS'PRE'
p142
S"<class 'gluon.html.PRE'>"
p143
sS'IS_INT_IN_RANGE'
p144
S"<class 'gluon.validators.IS_INT_IN_RANGE'>"
p145
sS'IS_LOWER'
p146
S"<class 'gluon.validators.IS_LOWER'>"
p147
sS'IS_STRONG'
p148
S"<class 'gluon.validators.IS_STRONG'>"
p149
sS'cache'
p150
S'<gluon.cache.Cache object>'
p151
sS'IS_IN_DB'
p152
S"<class 'gluon.validators.IS_IN_DB'>"
p153
sS'TAG'
p154
S'<gluon.html.__TAG__ object>'
p155
sS'SQLField'
p156
S"<class 'pydal.objects.Field'>"
p157
sS'mail'
p158
S'<gluon.tools.Mail object>'
p159
sS'BODY'
p160
S"<class 'gluon.html.BODY'>"
p161
sS'IS_DATE_IN_RANGE'
p162
S"<class 'gluon.validators.IS_DATE_IN_RANGE'>"
p163
sS'IFRAME'
p164
S"<class 'gluon.html.IFRAME'>"
p165
sS'URL'
p166
S'<function URL>'
p167
sS'__file__'
p168
S"r'C:\\Users\\maxse_000\\Downloads\\Installers_Setups\\w...y\\applications\\fizcode\\views\\default/courses.html'"
p169
sS'db'
p170
S'<DAL uri="sqlite://storage.sqlite">'
p171
sS'auth'
p172
S'<gluon.tools.Auth object>'
p173
sS'P'
S"<class 'gluon.html.P'>"
p174
sS'TFOOT'
p175
S"<class 'gluon.html.TFOOT'>"
p176
sS'XHTML'
p177
S"<class 'gluon.html.XHTML'>"
p178
sS'ON'
p179
S'True'
p180
sS'OL'
p181
S"<class 'gluon.html.OL'>"
p182
sS'TEXTAREA'
p183
S"<class 'gluon.html.TEXTAREA'>"
p184
sS'MENU'
p185
S"<class 'gluon.html.MENU'>"
p186
sS'IS_IMAGE'
p187
S"<class 'gluon.validators.IS_IMAGE'>"
p188
sS'EM'
p189
S"<class 'gluon.html.EM'>"
p190
sS'CODE'
p191
S"<class 'gluon.html.CODE'>"
p192
sS'HTTP'
p193
S"<class 'gluon.http.HTTP'>"
p194
sS'HR'
p195
S"<class 'gluon.html.HR'>"
p196
sS'IS_DATETIME'
p197
S"<class 'gluon.validators.IS_DATETIME'>"
p198
sS'STYLE'
p199
S"<class 'gluon.html.STYLE'>"
p200
sS'LABEL'
p201
S"<class 'gluon.html.LABEL'>"
p202
sS'CLEANUP'
p203
S"<class 'gluon.validators.CLEANUP'>"
p204
sS'plugins'
p205
S'<gluon.tools.PluginManager object>'
p206
sS'SELECT'
p207
S"<class 'gluon.html.SELECT'>"
p208
sS'CENTER'
p209
S"<class 'gluon.html.CENTER'>"
p210
sS'Auth'
p211
S"<class 'gluon.tools.Auth'>"
p212
sS'DEVELOPMENT_MENU'
p213
g180
sS'__builtins__'
p214
S"{'ArithmeticError': <type 'exceptions.ArithmeticError'>, 'AssertionError': <type 'exceptions.AssertionError'>, 'AttributeError': <type 'exceptions.AttributeError'>, 'BaseException': <type 'exceptions.BaseException'>, 'BufferError': <type 'exceptions.BufferError'>, 'BytesWarning': <type 'exceptions.BytesWarning'>, 'DeprecationWarning': <type 'exceptions.DeprecationWarning'>, 'EOFError': <type 'exceptions.EOFError'>, 'Ellipsis': Ellipsis, 'EnvironmentError': <type 'exceptions.EnvironmentError'>, ...}"
p215
sS'HTML'
p216
S"<class 'gluon.html.HTML'>"
p217
sS'SQLFORM'
p218
S"<class 'gluon.sqlhtml.SQLFORM'>"
p219
sS'LOAD'
p220
S'<function LOAD>'
p221
sS'redirect'
p222
S'<function redirect>'
p223
sS'FIELDSET'
p224
S"<class 'gluon.html.FIELDSET'>"
p225
sS'IS_EQUAL_TO'
p226
S"<class 'gluon.validators.IS_EQUAL_TO'>"
p227
sS'embed64'
p228
S'<function embed64>'
p229
sS'IS_LIST_OF'
p230
S"<class 'gluon.validators.IS_LIST_OF'>"
p231
sS'INPUT'
p232
S"<class 'gluon.html.INPUT'>"
p233
sS'EMBED'
p234
S"<class 'gluon.html.EMBED'>"
p235
sS'_'
S'<function _>'
p236
sS'myconf'
p237
S"{'forms': {'formstyle': 'bootstrap3_inline', 'se...'you@gmail.com', 'server': 'smtp.gmail.com:587'}}"
p238
sS'H2'
p239
S"<class 'gluon.html.H2'>"
p240
sS'H3'
p241
S"<class 'gluon.html.H3'>"
p242
sS'AppConfig'
p243
S'<function AppConfig>'
p244
sS'H1'
p245
S"<class 'gluon.html.H1'>"
p246
sS'H6'
p247
S"<class 'gluon.html.H6'>"
p248
sS'H4'
p249
S"<class 'gluon.html.H4'>"
p250
sS'H5'
p251
S"<class 'gluon.html.H5'>"
p252
sS'UL'
p253
S"<class 'gluon.html.UL'>"
p254
sS'IS_UPPER'
p255
S"<class 'gluon.validators.IS_UPPER'>"
p256
sS'xmlescape'
p257
S'<function xmlescape>'
p258
sS'IS_TIME'
p259
S"<class 'gluon.validators.IS_TIME'>"
p260
sS'OPTION'
p261
S"<class 'gluon.html.OPTION'>"
p262
sS'TITLE'
p263
S"<class 'gluon.html.TITLE'>"
p264
sS'CRYPT'
p265
S"<class 'gluon.validators.CRYPT'>"
p266
sS'IS_EMPTY_OR'
p267
S"<class 'gluon.validators.IS_EMPTY_OR'>"
p268
sS'MARKMIN'
p269
S"<class 'gluon.html.MARKMIN'>"
p270
sS'__name__'
p271
S"'__restricted__'"
p272
sS'STRONG'
p273
S"<class 'gluon.html.STRONG'>"
p274
sS'COL'
p275
S"<class 'gluon.html.COL'>"
p276
sS'mc1'
p277
S"'col-md-9'"
p278
sS'mc0'
p279
S"'col-md-12'"
p280
sS'rows'
p281
S'<Rows (2)>'
p282
sS'service'
p283
S'<gluon.tools.Service object>'
p284
sS'SCRIPT'
p285
S"<class 'gluon.html.SCRIPT'>"
p286
sS'TABLE'
p287
S"<class 'gluon.html.TABLE'>"
p288
sS'IS_IPV4'
p289
S"<class 'gluon.validators.IS_IPV4'>"
p290
sS'IS_LENGTH'
p291
S"<class 'gluon.validators.IS_LENGTH'>"
p292
sS'IS_IPV6'
p293
S"<class 'gluon.validators.IS_IPV6'>"
p294
sS'XML'
p295
S"<class 'gluon.html.XML'>"
p296
sS'B'
S"<class 'gluon.html.B'>"
p297
sS'IMG'
p298
S"<class 'gluon.html.IMG'>"
p299
sS'SQLTABLE'
p300
S"<class 'gluon.sqlhtml.SQLTABLE'>"
p301
sS'IS_MATCH'
p302
S"<class 'gluon.validators.IS_MATCH'>"
p303
sS'IS_ALPHANUMERIC'
p304
S"<class 'gluon.validators.IS_ALPHANUMERIC'>"
p305
sS'SPAN'
p306
S"<class 'gluon.html.SPAN'>"
p307
sS'IS_JSON'
p308
S"<class 'gluon.validators.IS_JSON'>"
p309
sS'IS_IPADDRESS'
p310
S"<class 'gluon.validators.IS_IPADDRESS'>"
p311
sS'IS_SLUG'
p312
S"<class 'gluon.validators.IS_SLUG'>"
p313
sS'BEAUTIFY'
p314
S"<class 'gluon.html.BEAUTIFY'>"
p315
sS'META'
p316
S"<class 'gluon.html.META'>"
p317
sS'BUTTON'
p318
S"<class 'gluon.html.BUTTON'>"
p319
sS'IS_DATE'
p320
S"<class 'gluon.validators.IS_DATE'>"
p321
sS'IS_EMAIL'
p322
S"<class 'gluon.validators.IS_EMAIL'>"
p323
sS'middle_column'
p324
S"{0: 'col-md-12', 1: 'col-md-9', 2: 'col-md-6'}"
p325
sS'IS_NOT_EMPTY'
p326
S"<class 'gluon.validators.IS_NOT_EMPTY'>"
p327
sS'IS_FLOAT_IN_RANGE'
p328
S"<class 'gluon.validators.IS_FLOAT_IN_RANGE'>"
p329
sS'TBODY'
p330
S"<class 'gluon.html.TBODY'>"
p331
sS'CAT'
p332
S"<class 'gluon.html.CAT'>"
p333
sS'Field'
p334
S"<class 'pydal.objects.Field'>"
p335
sS'mc2'
p336
S"'col-md-6'"
p337
sS'IS_LIST_OF_EMAILS'
p338
S"<class 'gluon.validators.IS_LIST_OF_EMAILS'>"
p339
sS'DIV'
p340
S"<class 'gluon.html.DIV'>"
p341
sS'LEGEND'
p342
S"<class 'gluon.html.LEGEND'>"
p343
sS'COLGROUP'
p344
S"<class 'gluon.html.COLGROUP'>"
p345
sS'DAL'
p346
S"<class 'pydal.base.DAL'>"
p347
sS'ASSIGNJS'
p348
S'<function ASSIGNJS>'
p349
sS'TR'
p350
S"<class 'gluon.html.TR'>"
p351
sS'LI'
p352
S"<class 'gluon.html.LI'>"
p353
sS'TH'
p354
S"<class 'gluon.html.TH'>"
p355
sS'TD'
p356
S"<class 'gluon.html.TD'>"
p357
sS'PluginManager'
p358
S"<class 'gluon.tools.PluginManager'>"
p359
sS'IS_URL'
p360
S"<class 'gluon.validators.IS_URL'>"
p361
sS'A'
S"<class 'gluon.html.A'>"
p362
sS'HEAD'
p363
S"<class 'gluon.html.HEAD'>"
p364
sS'IS_DATETIME_IN_RANGE'
p365
S"<class 'gluon.validators.IS_DATETIME_IN_RANGE'>"
p366
sS'FORM'
p367
S"<class 'gluon.html.FORM'>"
p368
sS'I'
S"<class 'gluon.html.I'>"
p369
sS'IS_NOT_IN_DB'
p370
S"<class 'gluon.validators.IS_NOT_IN_DB'>"
p371
sg119
S"<Storage {'body': <cStringIO.StringO object at 0... at 0x079737F0>, 'view': 'default/courses.html'}>"
p372
sS'THEAD'
p373
S"<class 'gluon.html.THEAD'>"
p374
sS'ANY_OF'
p375
S"<class 'gluon.validators.ANY_OF'>"
p376
sS'IS_NULL_OR'
p377
S"<class 'gluon.validators.IS_EMPTY_OR'>"
p378
sg56
S"<Storage {'_vars': None, 'function': 'courses', ...s\\\\web2py_win\\\\web2py\\\\applications\\\\fizcode\\\\'}>"
p379
sS'IS_EXPR'
p380
S"<class 'gluon.validators.IS_EXPR'>"
p381
sS'T'
S'<gluon.languages.translator object>'
p382
sS'IS_IN_SET'
p383
S"<class 'gluon.validators.IS_IN_SET'>"
p384
sS'IS_UPLOAD_FILENAME'
p385
S"<class 'gluon.validators.IS_UPLOAD_FILENAME'>"
p386
sS'TT'
p387
S"<class 'gluon.html.TT'>"
p388
sS'IS_DECIMAL_IN_RANGE'
p389
S"<class 'gluon.validators.IS_DECIMAL_IN_RANGE'>"
p390
sssS'traceback'
p391
S'Traceback (most recent call last):\n  File "C:\\Users\\maxse_000\\Downloads\\Installers_Setups\\web2py_win\\web2py\\gluon\\restricted.py", line 227, in restricted\n    exec ccode in environment\n  File "C:\\Users\\maxse_000\\Downloads\\Installers_Setups\\web2py_win\\web2py\\applications\\fizcode\\views\\default/courses.html", line 72, in <module>\n    </g>\nAttributeError: \'Rows\' object has no attribute \'title\'\n'
p392
s.